

Microchip MPLAB XC8 Assembler V2.41 build 20230208172133 
                                                                                               Wed May 31 10:53:08 2023

Microchip MPLAB XC8 C Compiler v2.41 (Free license) build 20230208172133 Og1 
     1                           	processor	18F47Q43
     2                           	fnconf	rparam,??,?,0
     3                           	pagewidth 120
     4                           	opt	flic
     5                           	psect	smallconst,global,reloc=2,class=SMALLCONST,delta=1,noexec
     6                           	psect	nvBANK5,global,class=BANK5,space=1,delta=1,lowdata,noexec
     7                           	psect	cinit,global,reloc=2,class=CODE,delta=1
     8                           	psect	bssCOMRAM,global,class=COMRAM,space=1,delta=1,lowdata,noexec
     9                           	psect	bssBANK5,global,class=BANK5,space=1,delta=1,lowdata,noexec
    10                           	psect	cstackCOMRAM,global,class=COMRAM,space=1,delta=1,lowdata,noexec
    11                           	psect	text0,global,reloc=2,class=CODE,delta=1
    12                           	psect	text1,global,reloc=2,class=CODE,delta=1
    13                           	psect	text2,global,reloc=2,class=CODE,delta=1
    14                           	psect	text3,global,reloc=2,class=CODE,delta=1
    15                           	psect	text4,global,reloc=2,class=CODE,delta=1
    16                           	psect	text5,global,reloc=2,class=CODE,delta=1
    17                           	psect	text6,global,reloc=2,class=CODE,delta=1
    18                           	psect	text7,global,reloc=2,class=CODE,delta=1
    19                           	psect	text8,global,reloc=2,class=CODE,delta=1
    20                           	psect	text9,global,reloc=2,class=CODE,delta=1
    21                           	psect	text10,global,reloc=2,class=CODE,delta=1
    22                           	psect	text11,global,reloc=2,class=CODE,delta=1
    23                           	psect	text12,global,reloc=2,class=CODE,delta=1
    24                           	psect	text13,global,reloc=2,class=CODE,delta=1
    25                           	psect	text14,global,reloc=2,class=CODE,delta=1
    26                           	psect	text15,global,reloc=2,class=CODE,delta=1
    27                           	psect	text16,global,reloc=2,class=CODE,delta=1
    28                           	psect	text17,global,reloc=2,class=CODE,delta=1
    29                           	psect	text18,global,reloc=2,class=CODE,delta=1
    30                           	psect	text19,global,reloc=2,class=CODE,delta=1
    31                           	psect	text20,global,reloc=2,class=CODE,delta=1
    32                           	psect	text21,global,reloc=2,class=CODE,delta=1
    33                           	psect	text22,global,reloc=2,class=CODE,delta=1
    34                           	psect	text23,global,reloc=2,class=CODE,delta=1
    35                           	psect	text24,global,reloc=2,class=CODE,delta=1
    36                           	psect	text25,global,reloc=2,class=CODE,delta=1
    37                           	psect	text26,global,reloc=2,class=CODE,delta=1
    38                           	psect	text27,global,reloc=2,class=CODE,delta=1
    39                           	psect	text28,global,reloc=2,class=CODE,delta=1
    40                           	psect	text29,global,reloc=2,class=CODE,delta=1
    41                           	psect	text30,global,reloc=2,class=CODE,delta=1
    42                           	psect	text31,global,reloc=2,class=CODE,delta=1
    43                           	psect	text32,global,reloc=2,class=CODE,delta=1
    44                           	psect	text33,global,reloc=2,class=CODE,delta=1
    45                           	psect	text34,global,reloc=2,class=CODE,delta=1
    46                           	psect	text35,global,reloc=2,class=CODE,delta=1
    47                           	psect	text36,global,reloc=2,class=CODE,delta=1
    48                           	psect	text37,global,reloc=2,class=CODE,delta=1
    49                           	psect	text38,global,reloc=2,class=CODE,delta=1
    50                           	psect	text39,global,reloc=2,class=CODE,delta=1
    51                           	psect	text40,global,reloc=2,class=CODE,delta=1
    52                           	psect	text41,global,reloc=2,class=CODE,delta=1
    53                           	psect	text42,global,reloc=2,class=CODE,delta=1
    54                           	psect	text43,global,reloc=2,class=CODE,delta=1
    55                           	psect	text44,global,reloc=2,class=CODE,delta=1
    56                           	psect	text45,global,reloc=2,class=CODE,delta=1
    57                           	psect	text46,global,reloc=2,class=CODE,delta=1
    58                           	psect	text47,global,reloc=2,class=CODE,delta=1
    59                           	psect	text48,global,reloc=2,class=CODE,delta=1
    60                           	psect	text49,global,reloc=2,class=CODE,delta=1
    61                           	psect	text50,global,reloc=2,class=CODE,delta=1
    62                           	psect	text51,global,reloc=2,class=CODE,delta=1
    63                           	psect	text52,global,reloc=2,class=CODE,delta=1,group=3
    64                           	psect	text53,global,reloc=2,class=CODE,delta=1,group=1
    65                           	psect	text54,global,reloc=2,class=CODE,delta=1,group=1
    66                           	psect	text55,global,reloc=2,class=CODE,delta=1,group=1
    67                           	psect	text56,global,reloc=2,class=CODE,delta=1,group=1
    68                           	psect	text57,global,reloc=2,class=CODE,delta=1,group=3
    69                           	psect	text58,global,reloc=2,class=CODE,delta=1,group=3
    70                           	psect	text59,global,reloc=2,class=CODE,delta=1,group=3
    71                           	psect	text60,global,reloc=2,class=CODE,delta=1,group=3
    72                           	psect	text61,global,reloc=2,class=CODE,delta=1,group=2
    73                           	psect	text62,global,reloc=2,class=CODE,delta=1,group=2
    74                           	psect	text63,global,reloc=2,class=CODE,delta=1
    75                           	psect	text64,global,reloc=2,class=CODE,delta=1
    76                           	psect	text65,global,reloc=2,class=CODE,delta=1
    77                           	psect	text66,global,reloc=2,class=CODE,delta=1
    78                           	psect	text67,global,reloc=2,class=CODE,delta=1
    79                           	psect	text68,global,reloc=2,class=CODE,delta=1
    80                           	psect	text69,global,reloc=2,class=CODE,delta=1
    81                           	psect	text70,global,reloc=2,class=CODE,delta=1
    82                           	psect	ivt0x8,global,reloc=2,class=CODE,delta=1,noexec,keep,optim=
    83                           	psect	intsave_regs,global,class=BIGRAM,space=1,delta=1,noexec
    84                           	psect	text71,global,reloc=2,class=CODE,delta=1
    85                           	psect	rparam,global,class=COMRAM,space=1,delta=1,noexec
    86                           	psect	idloc,global,abs,ovrld,class=IDLOC,space=5,delta=1,noexec
    87                           	psect	config,global,abs,ovrld,class=CONFIG,space=4,delta=1,noexec
    88   000000                     
    89                           ; Generated 24/05/2023 GMT
    90                           ; 
    91                           ; Copyright © 2023, Microchip Technology Inc. and its subsidiaries ("Microchip")
    92                           ; All rights reserved.
    93                           ; 
    94                           ; This software is developed by Microchip Technology Inc. and its subsidiaries ("Microch
      +                          ip").
    95                           ; 
    96                           ; Redistribution and use in source and binary forms, with or without modification, are
    97                           ; permitted provided that the following conditions are met:
    98                           ; 
    99                           ;     1. Redistributions of source code must retain the above copyright notice, this lis
      +                          t of
   100                           ;        conditions and the following disclaimer.
   101                           ; 
   102                           ;     2. Redistributions in binary form must reproduce the above copyright notice, this 
      +                          list
   103                           ;        of conditions and the following disclaimer in the documentation and/or other
   104                           ;        materials provided with the distribution. Publication is not required when
   105                           ;        this file is used in an embedded application.
   106                           ; 
   107                           ;     3. Microchip's name may not be used to endorse or promote products derived from th
      +                          is
   108                           ;        software without specific prior written permission.
   109                           ; 
   110                           ; THIS SOFTWARE IS PROVIDED BY MICROCHIP "AS IS" AND ANY EXPRESS OR IMPLIED WARRANTIES,
   111                           ; INCLUDING, BUT NOT LIMITED TO, THE IMPLIED WARRANTIES OF MERCHANTABILITY AND FITNESS F
      +                          OR
   112                           ; PURPOSE ARE DISCLAIMED.  IN NO EVENT SHALL MICROCHIP BE LIABLE FOR ANY DIRECT, INDIREC
      +                          T,
   113                           ; INCIDENTAL, SPECIAL, EXEMPLARY, OR CONSEQUENTIAL DAMAGES (INCLUDING BUT NOT LIMITED TO
   114                           ; PROCUREMENT OF SUBSTITUTE GOODS OR SERVICES; LOSS OF USE, DATA OR PROFITS; OR BUSINESS
   115                           ; INTERRUPTION) HOWSOEVER CAUSED AND ON ANY THEORY OF LIABILITY, WHETHER IN CONTRACT, ST
      +                          RICT
   116                           ; LIABILITY, OR TORT (INCLUDING NEGLIGENCE OR OTHERWISE) ARISING IN ANY WAY OUT OF THE U
      +                          SE OF
   117                           ; THIS SOFTWARE, EVEN IF ADVISED OF THE POSSIBILITY OF SUCH DAMAGE.
   118                           ; 
   119                           ; 
   120                           ; Code-generator required, PIC18F47Q43 Definitions
   121                           ; 
   122                           ; SFR Addresses
   123   000000                     
   124 ;; Function _PWM3_16BIT_Slice1Output1_DefaultInterruptHandler is unused but had its address taken
   125   000000                     
   126 ;; Function _PWM3_16BIT_Slice1Output2_DefaultInterruptHandler is unused but had its address taken
   127   000000                     
   128 ;; Function _PWM3_16BIT_Period_DefaultInterruptHandler is unused but had its address taken
   129   000000                     
   130 ;; Function _INT0_DefaultInterruptHandler is unused but had its address taken
   131   000000                     
   132 ;; Function _INT1_DefaultInterruptHandler is unused but had its address taken
   133   000000                     
   134 ;; Function _INT2_DefaultInterruptHandler is unused but had its address taken
   135   000000                     
   136 ;; Function _TMR0_Start is unused but had its address taken
   137   000000                     
   138 ;; Function _TMR0_Stop is unused but had its address taken
   139   000000                     
   140 ;; Function _TMR0_Reload is unused but had its address taken
   141   000000                     
   142 ;; Function _TMR1_DefaultGateCallback is unused but had its address taken
   143   000000                     
   144 ;; Function _TMR1_Tasks is unused but had its address taken
   145   000000                     
   146 ;; Function _TMR2_PeriodCountSet is unused but had its address taken
   147   000000                     
   148 ;; Function _TMR2_Tasks is unused but had its address taken
   149   000000                     
   150 ;; Function _UART1_Deinitialize is unused but had its address taken
   151   000000                     
   152 ;; Function _UART1_TransmitEnable is unused but had its address taken
   153   000000                     
   154 ;; Function _UART1_TransmitDisable is unused but had its address taken
   155   000000                     
   156 ;; Function _UART1_AutoBaudSet is unused but had its address taken
   157   000000                     
   158 ;; Function _UART1_AutoBaudQuery is unused but had its address taken
   159   000000                     
   160 ;; Function _UART1_IsRxReady is unused but had its address taken
   161   000000                     
   162 ;; Function _UART1_IsTxReady is unused but had its address taken
   163   000000                     
   164 ;; Function _UART1_IsTxDone is unused but had its address taken
   165   000000                     
   166 ;; Function _UART1_ErrorGet is unused but had its address taken
   167   000000                     
   168 ;; Function _UART1_Read is unused but had its address taken
   169   000000                     
   170 ;; Function _UART1_Write is unused but had its address taken
   171   000000                     
   172 ;; Function _UART1_DefaultFramingErrorCallback is unused but had its address taken
   173   000000                     
   174 ;; Function _UART1_DefaultOverrunErrorCallback is unused but had its address taken
   175   000000                     
   176 ;; Function _UART1_DefaultParityErrorCallback is unused but had its address taken
   177   000000                     
   178                           	psect	smallconst
   179   002600                     __psmallconst:
   180                           	callstack 0
   181   002600  00                 	db	0
   182   002601                     _UART1:
   183                           	callstack 0
   184   002601  2A                 	db	low _UART1_Initialize
   185   002602  2F                 	db	high _UART1_Initialize
   186   002603  00                 	db	low (_UART1_Initialize shr (0+16))
   187   002604  00                 	db	0
   188   002605  00                 	db	0
   189   002606  00                 	db	0
   190   002607  00                 	db	0
   191   002608  00                 	db	0
   192   002609  00                 	db	0
   193   00260A  00                 	db	0
   194   00260B  00                 	db	0
   195   00260C  00                 	db	0
   196   00260D  00                 	db	0
   197   00260E  00                 	db	0
   198   00260F  00                 	db	0
   199   002610  00                 	db	0
   200   002611  00                 	db	0
   201   002612  00                 	db	0
   202   002613  00                 	db	0
   203   002614  00                 	db	0
   204   002615  00                 	db	0
   205   002616  00                 	db	0
   206   002617  00                 	db	0
   207   002618  00                 	db	0
   208   002619  00                 	db	0
   209   00261A  00                 	db	0
   210   00261B  00                 	db	0
   211   00261C  00                 	db	0
   212   00261D  00                 	db	0
   213   00261E  00                 	db	0
   214   00261F  00                 	db	0
   215   002620  00                 	db	0
   216   002621  00                 	db	0
   217   002622  00                 	db	0
   218   002623  00                 	db	0
   219   002624  00                 	db	0
   220   002625  00                 	db	0
   221   002626  00                 	db	0
   222   002627  00                 	db	0
   223   002628  00                 	db	0
   224   002629  00                 	db	0
   225   00262A  00                 	db	0
   226   00262B  00                 	db	0
   227   00262C  00                 	db	0
   228   00262D  00                 	db	0
   229   00262E  00                 	db	0
   230   00262F  00                 	db	0
   231   002630  00                 	db	0
   232   002631  00                 	db	0
   233   002632  00                 	db	0
   234   002633  00                 	db	0
   235   002634  00                 	db	0
   236   002635  00                 	db	0
   237   002636  00                 	db	0
   238   002637  00                 	db	0
   239   002638  00                 	db	0
   240   002639  00                 	db	0
   241   00263A  00                 	db	0
   242   00263B  00                 	db	0
   243   00263C  00                 	db	0
   244   00263D  62                 	db	low _UART1_FramingErrorCallbackRegister
   245   00263E  38                 	db	high _UART1_FramingErrorCallbackRegister
   246   00263F  00                 	db	low (_UART1_FramingErrorCallbackRegister shr (0+16))
   247   002640  40                 	db	low _UART1_OverrunErrorCallbackRegister
   248   002641  38                 	db	high _UART1_OverrunErrorCallbackRegister
   249   002642  00                 	db	low (_UART1_OverrunErrorCallbackRegister shr (0+16))
   250   002643  1E                 	db	low _UART1_ParityErrorCallbackRegister
   251   002644  38                 	db	high _UART1_ParityErrorCallbackRegister
   252   002645  00                 	db	low (_UART1_ParityErrorCallbackRegister shr (0+16))
   253   002646  00                 	db	0
   254   002647  00                 	db	0
   255   002648  00                 	db	0
   256   002649                     __end_of_UART1:
   257                           	callstack 0
   258   002649                     _tmr2:
   259                           	callstack 0
   260   002649  EE                 	db	low _TMR2_Initialize
   261   00264A  36                 	db	high _TMR2_Initialize
   262   00264B  00                 	db	low (_TMR2_Initialize shr (0+16))
   263   00264C  DE                 	db	low _TMR2_Start
   264   00264D  39                 	db	high _TMR2_Start
   265   00264E  00                 	db	low (_TMR2_Start shr (0+16))
   266   00264F  D8                 	db	low _TMR2_Stop
   267   002650  39                 	db	high _TMR2_Stop
   268   002651  00                 	db	low (_TMR2_Stop shr (0+16))
   269   002652  00                 	db	0
   270   002653  00                 	db	0
   271   002654  00                 	db	0
   272   002655  28                 	db	low _TMR2_OverflowCallbackRegister
   273   002656  39                 	db	high _TMR2_OverflowCallbackRegister
   274   002657  00                 	db	low (_TMR2_OverflowCallbackRegister shr (0+16))
   275   002658  00                 	db	0
   276   002659  00                 	db	0
   277   00265A  00                 	db	0
   278   00265B                     __end_of_tmr2:
   279                           	callstack 0
   280   00265B                     _tmr1:
   281                           	callstack 0
   282   00265B  0E                 	db	low _TMR1_Initialize
   283   00265C  33                 	db	high _TMR1_Initialize
   284   00265D  00                 	db	low (_TMR1_Initialize shr (0+16))
   285   00265E  EA                 	db	low _TMR1_Start
   286   00265F  39                 	db	high _TMR1_Start
   287   002660  00                 	db	low (_TMR1_Start shr (0+16))
   288   002661  E4                 	db	low _TMR1_Stop
   289   002662  39                 	db	high _TMR1_Stop
   290   002663  00                 	db	low (_TMR1_Stop shr (0+16))
   291   002664  CE                 	db	low _TMR1_Write
   292   002665  37                 	db	high _TMR1_Write
   293   002666  00                 	db	low (_TMR1_Write shr (0+16))
   294   002667  36                 	db	low _TMR1_OverflowCallbackRegister
   295   002668  39                 	db	high _TMR1_OverflowCallbackRegister
   296   002669  00                 	db	low (_TMR1_OverflowCallbackRegister shr (0+16))
   297   00266A  00                 	db	0
   298   00266B  00                 	db	0
   299   00266C  00                 	db	0
   300   00266D                     __end_of_tmr1:
   301                           	callstack 0
   302   00266D                     _tmr0:
   303                           	callstack 0
   304   00266D  A4                 	db	low _TMR0_Initialize
   305   00266E  37                 	db	high _TMR0_Initialize
   306   00266F  00                 	db	low (_TMR0_Initialize shr (0+16))
   307   002670  00                 	db	0
   308   002671  00                 	db	0
   309   002672  00                 	db	0
   310   002673  00                 	db	0
   311   002674  00                 	db	0
   312   002675  00                 	db	0
   313   002676  00                 	db	0
   314   002677  00                 	db	0
   315   002678  00                 	db	0
   316   002679  A6                 	db	low _TMR0_OverflowCallbackRegister
   317   00267A  39                 	db	high _TMR0_OverflowCallbackRegister
   318   00267B  00                 	db	low (_TMR0_OverflowCallbackRegister shr (0+16))
   319   00267C  00                 	db	0
   320   00267D  00                 	db	0
   321   00267E  00                 	db	0
   322   00267F                     __end_of_tmr0:
   323                           	callstack 0
   324   000000                     _T2CON	set	804
   325   000000                     _T2TMR	set	802
   326   000000                     _T2PR	set	803
   327   000000                     _T2HLT	set	805
   328   000000                     _T2CLKCON	set	806
   329   000000                     _T1CON	set	798
   330   000000                     _TMR1L	set	796
   331   000000                     _TMR1H	set	797
   332   000000                     _T1CLK	set	801
   333   000000                     _T1GATE	set	800
   334   000000                     _T1GCON	set	799
   335   000000                     _T0CON0	set	794
   336   000000                     _T0CON1	set	795
   337   000000                     _OSCTUNE	set	176
   338   000000                     _OSCFRQ	set	177
   339   000000                     _OSCEN	set	179
   340   000000                     _IOCCF	set	1047
   341   000000                     _IOCCN	set	1046
   342   000000                     _IOCCP	set	1045
   343   000000                     _IOCBF	set	1039
   344   000000                     _IOCBN	set	1038
   345   000000                     _IOCBP	set	1037
   346   000000                     _IOCAF	set	1031
   347   000000                     _IOCAN	set	1030
   348   000000                     _IOCAP	set	1029
   349   000000                     _INLVLC	set	1044
   350   000000                     _INLVLB	set	1036
   351   000000                     _INLVLA	set	1028
   352   000000                     _SLRCONC	set	1043
   353   000000                     _SLRCONB	set	1035
   354   000000                     _SLRCONA	set	1027
   355   000000                     _ODCONC	set	1042
   356   000000                     _ODCONB	set	1034
   357   000000                     _ODCONA	set	1026
   358   000000                     _WPUC	set	1041
   359   000000                     _WPUB	set	1033
   360   000000                     _WPUA	set	1025
   361   000000                     _ANSELD	set	1048
   362   000000                     _ANSELC	set	1040
   363   000000                     _ANSELB	set	1032
   364   000000                     _PWM3CON	set	1159
   365   000000                     _PWM3S1CFG	set	1160
   366   000000                     _PWM3GIE	set	1158
   367   000000                     _PWM3GIR	set	1157
   368   000000                     _PWM3PIPOS	set	1156
   369   000000                     _PWM3CPRE	set	1155
   370   000000                     _PWM3PRH	set	1154
   371   000000                     _PWM3PRL	set	1153
   372   000000                     _PWM3LDS	set	1152
   373   000000                     _PWM3CLK	set	1151
   374   000000                     _NVMLOCK	set	66
   375   000000                     _NVMDATL	set	70
   376   000000                     _NVMDATH	set	71
   377   000000                     _NVMADRL	set	67
   378   000000                     _NVMADRH	set	68
   379   000000                     _NVMADRU	set	69
   380   000000                     _NVMCON1bits	set	65
   381   000000                     _CLCnCON	set	214
   382   000000                     _CLCnPOL	set	215
   383   000000                     _ADERRL	set	989
   384   000000                     _ADERRH	set	990
   385   000000                     _ADPREVL	set	1000
   386   000000                     _ADPREVH	set	1001
   387   000000                     _ADFLTRL	set	993
   388   000000                     _ADFLTRH	set	994
   389   000000                     _ADACCL	set	995
   390   000000                     _ADACCH	set	996
   391   000000                     _ADCNT	set	998
   392   000000                     _PIR2bits	set	1200
   393   000000                     _ADCON0	set	1011
   394   000000                     _ADCON1	set	1012
   395   000000                     _ADPREH	set	1010
   396   000000                     _ADPREL	set	1009
   397   000000                     _ADCAP	set	1008
   398   000000                     _ADACQH	set	1007
   399   000000                     _ADRPT	set	999
   400   000000                     _ADACCU	set	997
   401   000000                     _ADSTPTH	set	992
   402   000000                     _ADSTPTL	set	991
   403   000000                     _ADUTHH	set	988
   404   000000                     _ADUTHL	set	987
   405   000000                     _ADLTHH	set	986
   406   00267F                     STR_1:
   407   00267F  41                 	db	65	;'A'
   408   002680  44                 	db	68	;'D'
   409   002681  43                 	db	67	;'C'
   410   002682  20                 	db	32
   411   002683  52                 	db	82	;'R'
   412   002684  65                 	db	101	;'e'
   413   002685  73                 	db	115	;'s'
   414   002686  75                 	db	117	;'u'
   415   002687  6C                 	db	108	;'l'
   416   002688  74                 	db	116	;'t'
   417   002689  3A                 	db	58	;':'
   418   00268A  20                 	db	32
   419   00268B  25                 	db	37
   420   00268C  64                 	db	100	;'d'
   421   00268D  0A                 	db	10
   422   00268E  0D                 	db	13
   423   00268F  00                 	db	0
   424   002690  00                 	db	0	; dummy byte at the end
   425   000000                     
   426                           	psect	nvBANK5
   427   00059B                     __pnvBANK5:
   428                           	callstack 0
   429   00059B                     _TMR2_OverflowCallback:
   430                           	callstack 0
   431   00059B                     	ds	3
   432   00059E                     _TMR1_GateCallback:
   433                           	callstack 0
   434   00059E                     	ds	3
   435   0005A1                     _TMR1_OverflowCallback:
   436                           	callstack 0
   437   0005A1                     	ds	3
   438   0005A4                     _TMR0_OverflowCallback:
   439                           	callstack 0
   440   0005A4                     	ds	3
   441   0005A7                     _PWM3_16BIT_Period_InterruptHandler:
   442                           	callstack 0
   443   0005A7                     	ds	3
   444   0005AA                     _PWM3_16BIT_Slice1Output2_InterruptHandler:
   445                           	callstack 0
   446   0005AA                     	ds	3
   447   0005AD                     _PWM3_16BIT_Slice1Output1_InterruptHandler:
   448                           	callstack 0
   449   0005AD                     	ds	3
   450   000000                     _CLCDATAbits	set	212
   451   000000                     _U1FIFObits	set	688
   452   000000                     _U1ERRIRbits	set	690
   453   000000                     _U1UIRbits	set	689
   454   000000                     _U1CON0bits	set	683
   455   000000                     _U1CON1bits	set	684
   456   000000                     _PPSLOCKbits	set	512
   457   000000                     _PR2	set	803
   458   000000                     _TMR2	set	802
   459   000000                     _T2CONbits	set	804
   460   000000                     _T2RSTbits	set	807
   461   000000                     _T2HLTbits	set	805
   462   000000                     _T1GCONbits	set	799
   463   000000                     _T1CONbits	set	798
   464   000000                     _T0CON0bits	set	794
   465   000000                     _ADCON1bits	set	1012
   466   000000                     _ADSTATbits	set	1015
   467   000000                     _ADCON2bits	set	1013
   468   000000                     _ADCON3bits	set	1014
   469   000000                     _ADRESL	set	1002
   470   000000                     _ADRESH	set	1003
   471   000000                     _ADCON0bits	set	1011
   472   000000                     _PIR3bits	set	1201
   473   000000                     _PIE3bits	set	1185
   474   000000                     _PWM3GIEbits	set	1158
   475   000000                     _PWM3CONbits	set	1159
   476   000000                     _PWM3GIRbits	set	1157
   477   000000                     _LATAbits	set	1214
   478   000000                     _ADRES	set	1002
   479   000000                     _NVMCON0bits	set	64
   480   000000                     _WDTCON0bits	set	120
   481   000000                     _PPSLOCK	set	512
   482   000000                     _LATA	set	1214
   483   000000                     _TMR1IF	set	9612
   484   000000                     _TRISA	set	1222
   485   000000                     _LATE	set	1218
   486   000000                     _LATD	set	1217
   487   000000                     _LATC	set	1216
   488   000000                     _LATB	set	1215
   489   000000                     _INTCON0bits	set	1238
   490   000000                     _PIR6bits	set	1204
   491   000000                     _PIR7bits	set	1205
   492   000000                     _ADACQL	set	1006
   493   000000                     _ADPCH	set	1004
   494   000000                     _TMR0IE	set	9487
   495   000000                     _RA7PPS	set	520
   496   000000                     _RC6PPS	set	535
   497   000000                     _U1RXPPS	set	626
   498   000000                     _RC4I2C	set	646
   499   000000                     _RC3I2C	set	647
   500   000000                     _RB2I2C	set	648
   501   000000                     _RB1I2C	set	649
   502   000000                     _ADLTHL	set	985
   503   000000                     _TABLAT	set	1269
   504   000000                     _TBLPTRL	set	1270
   505   000000                     _TBLPTRH	set	1271
   506   000000                     _TBLPTRU	set	1272
   507   000000                     _PIE7bits	set	1189
   508   000000                     _PIR1bits	set	1199
   509   000000                     _ACTCON	set	172
   510   000000                     _OSCCON1	set	173
   511   000000                     _CLCDATA	set	212
   512   000000                     _CLCSELECT	set	213
   513   000000                     _ANSELA	set	1024
   514   000000                     _PWM3ERS	set	1150
   515   000000                     _ADCLK	set	1018
   516   000000                     _ADACT	set	1017
   517   000000                     _ADREF	set	1016
   518   000000                     _ADSTAT	set	1015
   519   000000                     _ADCON3	set	1014
   520   000000                     _ADCON2	set	1013
   521   000000                     _CLCnGLS3	set	223
   522   000000                     _CLCnGLS2	set	222
   523   000000                     _CLCnGLS1	set	221
   524   000000                     _CLCnGLS0	set	220
   525   000000                     _CLCnSEL3	set	219
   526   000000                     _CLCnSEL2	set	218
   527   000000                     _CLCnSEL1	set	217
   528   000000                     _CLCnSEL0	set	216
   529   000000                     _PIE0bits	set	1182
   530   000000                     _PWM3S1P2H	set	1164
   531   000000                     _PWM3S1P2L	set	1163
   532   000000                     _PWM3S1P1H	set	1162
   533   000000                     _PWM3S1P1L	set	1161
   534   000000                     _PIR10bits	set	1208
   535   000000                     _PIR0bits	set	1198
   536   000000                     _PORTBbits	set	1231
   537   000000                     _TRISE	set	1226
   538   000000                     _TRISD	set	1225
   539   000000                     _TRISC	set	1224
   540   000000                     _TRISB	set	1223
   541   000000                     _INLVLD	set	1052
   542   000000                     _SLRCOND	set	1051
   543   000000                     _ODCOND	set	1050
   544   000000                     _WPUD	set	1049
   545   000000                     _ANSELE	set	1056
   546   000000                     _IOCEF	set	1063
   547   000000                     _IOCEN	set	1062
   548   000000                     _IOCEP	set	1061
   549   000000                     _INLVLE	set	1060
   550   000000                     _SLRCONE	set	1059
   551   000000                     _ODCONE	set	1058
   552   000000                     _WPUE	set	1057
   553   000000                     _U1RXB	set	673
   554   000000                     _TMR0L	set	792
   555   000000                     _TMR0H	set	793
   556   000000                     _OSCCON3	set	175
   557   000000                     _T2RST	set	807
   558   000000                     _U1ERRIE	set	691
   559   000000                     _U1ERRIR	set	690
   560   000000                     _U1UIR	set	689
   561   000000                     _U1FIFO	set	688
   562   000000                     _U1BRGH	set	687
   563   000000                     _U1BRGL	set	686
   564   000000                     _U1CON2	set	685
   565   000000                     _U1CON1	set	684
   566   000000                     _U1CON0	set	683
   567   000000                     _U1P3H	set	682
   568   000000                     _U1P3L	set	681
   569   000000                     _U1P2H	set	680
   570   000000                     _U1P2L	set	679
   571   000000                     _U1P1H	set	678
   572   000000                     _U1P1L	set	677
   573   000000                     _U1TXCHK	set	676
   574   000000                     _U1TXB	set	675
   575   000000                     _U1RXCHK	set	674
   576                           
   577                           ; #config settings
   578                           
   579                           	psect	cinit
   580   003778                     __pcinit:
   581                           	callstack 0
   582   003778                     start_initialization:
   583                           	callstack 0
   584   003778                     __initialization:
   585                           	callstack 0
   586                           
   587                           ; Clear objects allocated to BANK5 (59 bytes)
   588   003778  EE01  F160         	lfsr	0,__pbssBANK5
   589   00377C  0E3B               	movlw	59
   590   00377E                     clear_0:
   591   00377E  6AEE               	clrf	postinc0,c
   592   003780  06E8               	decf	wreg,f,c
   593   003782  E1FD               	bnz	clear_0
   594                           
   595                           ; Clear objects allocated to COMRAM (20 bytes)
   596   003784  EE01  F14C         	lfsr	0,__pbssCOMRAM
   597   003788  0E14               	movlw	20
   598   00378A                     clear_1:
   599   00378A  6AEE               	clrf	postinc0,c
   600   00378C  06E8               	decf	wreg,f,c
   601   00378E  E1FD               	bnz	clear_1
   602                           
   603                           ;
   604                           ; Setup IVTBASE
   605                           ;
   606   003790  0104               	movlb	4
   607   003792  0E08               	movlw	(ivt0x8_base shr 0)& (0+255)
   608   003794  6F5D               	movwf	93,b
   609   003796  0E00               	movlw	(ivt0x8_base shr (0+8))& (0+255)
   610   003798  6F5E               	movwf	94,b
   611   00379A  0E00               	movlw	(ivt0x8_base shr (0+16))& (0+255)
   612   00379C  6F5F               	movwf	95,b
   613   00379E                     end_of_initialization:
   614                           	callstack 0
   615   00379E                     __end_of__initialization:
   616                           	callstack 0
   617   00379E  0100               	movlb	0
   618   0037A0  EFAD  F014         	goto	_main	;jump to C main() function
   619                           
   620                           	psect	bssCOMRAM
   621   00054C                     __pbssCOMRAM:
   622                           	callstack 0
   623   00054C                     _timer1ReloadVal:
   624                           	callstack 0
   625   00054C                     	ds	2
   626   00054E                     _adcResult@PWM$F215:
   627                           	callstack 0
   628   00054E                     	ds	2
   629   000550                     _flags:
   630                           	callstack 0
   631   000550                     	ds	1
   632   000551                     _unlockKeyHigh:
   633                           	callstack 0
   634   000551                     	ds	1
   635   000552                     _unlockKeyLow:
   636                           	callstack 0
   637   000552                     	ds	1
   638   000553                     _ledDisplay:
   639                           	callstack 0
   640   000553                     	ds	1
   641   000554                     _adcResult@EEPROM$F398:
   642                           	callstack 0
   643   000554                     	ds	1
   644   000555                     _rotateReg@Interrupts$F299:
   645                           	callstack 0
   646   000555                     	ds	1
   647   000556                     _rotateReg@Timers$F243:
   648                           	callstack 0
   649   000556                     	ds	1
   650   000557                     _rotateReg@VSR$F164:
   651                           	callstack 0
   652   000557                     	ds	1
   653   000558                     _delay:
   654                           	callstack 0
   655   000558                     	ds	1
   656   000559                     _adcResult:
   657                           	callstack 0
   658   000559                     	ds	1
   659   00055A                     _rotateReg:
   660                           	callstack 0
   661   00055A                     	ds	1
   662   00055B                     _flagCounter:
   663                           	callstack 0
   664   00055B                     	ds	1
   665   00055C                     _btnState:
   666                           	callstack 0
   667   00055C                     	ds	1
   668   00055D                     _labState:
   669                           	callstack 0
   670   00055D                     	ds	1
   671   00055E                     _switchEvent:
   672                           	callstack 0
   673   00055E                     	ds	1
   674   00055F                     _labNumber:
   675                           	callstack 0
   676   00055F                     	ds	1
   677                           
   678                           	psect	bssBANK5
   679   000560                     __pbssBANK5:
   680                           	callstack 0
   681   000560                     _UART1_ParityErrorHandler:
   682                           	callstack 0
   683   000560                     	ds	3
   684   000563                     _UART1_OverrunErrorHandler:
   685                           	callstack 0
   686   000563                     	ds	3
   687   000566                     _UART1_FramingErrorHandler:
   688                           	callstack 0
   689   000566                     	ds	3
   690   000569                     _TMR1_InterruptHandler:
   691                           	callstack 0
   692   000569                     	ds	3
   693   00056C                     _INT2_InterruptHandler:
   694                           	callstack 0
   695   00056C                     	ds	3
   696   00056F                     _INT1_InterruptHandler:
   697                           	callstack 0
   698   00056F                     	ds	3
   699   000572                     _INT0_InterruptHandler:
   700                           	callstack 0
   701   000572                     	ds	3
   702   000575                     _width:
   703                           	callstack 0
   704   000575                     	ds	2
   705   000577                     _prec:
   706                           	callstack 0
   707   000577                     	ds	2
   708   000579                     _uart1RxLastError:
   709                           	callstack 0
   710   000579                     	ds	2
   711   00057B                     _dbuf:
   712                           	callstack 0
   713   00057B                     	ds	32
   714                           
   715                           	psect	cstackCOMRAM
   716   000501                     __pcstackCOMRAM:
   717                           	callstack 0
   718   000501                     ??_INTERRUPT_InterruptManager:
   719   000501                     
   720                           ; 1 bytes @ 0x0
   721   000501                     	ds	2
   722   000503                     ??_checkButtonS1:
   723   000503                     ??_Rotate:
   724   000503                     ?_ADCC_GetSingleConversion:
   725                           	callstack 0
   726   000503                     ?___awdiv:
   727                           	callstack 0
   728   000503                     ?___awmod:
   729                           	callstack 0
   730   000503                     PWM3_16BIT_SetSlice1Output1DutyCycleRegister@registerValue:
   731                           	callstack 0
   732   000503                     TMR1_Write@timerVal:
   733                           	callstack 0
   734   000503                     ___awdiv@dividend:
   735                           	callstack 0
   736   000503                     ___awmod@dividend:
   737                           	callstack 0
   738   000503                     fputc@c:
   739                           	callstack 0
   740   000503                     EEPROM_Read@address:
   741                           	callstack 0
   742   000503                     EEPROM_Write@address:
   743                           	callstack 0
   744   000503                     PWM3_16BIT_Slice1Output1_SetInterruptHandler@InterruptHandler:
   745                           	callstack 0
   746   000503                     PWM3_16BIT_Slice1Output2_SetInterruptHandler@InterruptHandler:
   747                           	callstack 0
   748   000503                     PWM3_16BIT_Period_SetInterruptHandler@InterruptHandler:
   749                           	callstack 0
   750   000503                     INT0_SetInterruptHandler@InterruptHandler:
   751                           	callstack 0
   752   000503                     INT1_SetInterruptHandler@InterruptHandler:
   753                           	callstack 0
   754   000503                     INT2_SetInterruptHandler@InterruptHandler:
   755                           	callstack 0
   756   000503                     TMR0_OverflowCallbackRegister@CallbackHandler:
   757                           	callstack 0
   758   000503                     TMR1_OverflowCallbackRegister@CallbackHandler:
   759                           	callstack 0
   760   000503                     TMR1_GateCallbackRegister@CallbackHandler:
   761                           	callstack 0
   762   000503                     TMR2_OverflowCallbackRegister@InterruptHandler:
   763                           	callstack 0
   764   000503                     UART1_FramingErrorCallbackRegister@callbackHandler:
   765                           	callstack 0
   766   000503                     UART1_OverrunErrorCallbackRegister@callbackHandler:
   767                           	callstack 0
   768   000503                     UART1_ParityErrorCallbackRegister@callbackHandler:
   769                           	callstack 0
   770                           
   771                           ; 3 bytes @ 0x2
   772   000503                     	ds	2
   773   000505                     ??_ADCC_GetSingleConversion:
   774   000505                     ??_Blink:
   775   000505                     ___awdiv@divisor:
   776                           	callstack 0
   777   000505                     ___awmod@divisor:
   778                           	callstack 0
   779   000505                     fputc@fp:
   780                           	callstack 0
   781                           
   782                           ; 2 bytes @ 0x4
   783   000505                     	ds	1
   784   000506                     ??_EEPROM_Read:
   785   000506                     ??_TMR1_Initialize:
   786   000506                     EEPROM_Write@data:
   787                           	callstack 0
   788                           
   789                           ; 1 bytes @ 0x5
   790   000506                     	ds	1
   791   000507                     ??_EEPROM_Write:
   792   000507                     ??_fputc:
   793   000507                     ADCC_GetSingleConversion@channel:
   794                           	callstack 0
   795   000507                     ___awdiv@counter:
   796                           	callstack 0
   797   000507                     ___awmod@counter:
   798                           	callstack 0
   799                           
   800                           ; 1 bytes @ 0x6
   801   000507                     	ds	1
   802   000508                     ___awdiv@sign:
   803                           	callstack 0
   804   000508                     ___awmod@sign:
   805                           	callstack 0
   806                           
   807                           ; 1 bytes @ 0x7
   808   000508                     	ds	1
   809   000509                     ?_abs:
   810                           	callstack 0
   811   000509                     ___awdiv@quotient:
   812                           	callstack 0
   813   000509                     abs@a:
   814                           	callstack 0
   815                           
   816                           ; 2 bytes @ 0x8
   817   000509                     	ds	1
   818   00050A                     EEPROM_Write@globalInterruptBitValue:
   819                           	callstack 0
   820                           
   821                           ; 1 bytes @ 0x9
   822   00050A                     	ds	1
   823   00050B                     ??_abs:
   824   00050B                     ??_EEPROM:
   825                           
   826                           ; 1 bytes @ 0xA
   827   00050B                     	ds	1
   828   00050C                     fputs@s:
   829                           	callstack 0
   830                           
   831                           ; 2 bytes @ 0xB
   832   00050C                     	ds	2
   833   00050E                     fputs@fp:
   834                           	callstack 0
   835                           
   836                           ; 2 bytes @ 0xD
   837   00050E                     	ds	2
   838   000510                     fputs@c:
   839                           	callstack 0
   840                           
   841                           ; 1 bytes @ 0xF
   842   000510                     	ds	1
   843   000511                     fputs@i:
   844                           	callstack 0
   845                           
   846                           ; 2 bytes @ 0x10
   847   000511                     	ds	2
   848   000513                     pad@fp:
   849                           	callstack 0
   850                           
   851                           ; 2 bytes @ 0x12
   852   000513                     	ds	2
   853   000515                     pad@buf:
   854                           	callstack 0
   855                           
   856                           ; 2 bytes @ 0x14
   857   000515                     	ds	2
   858   000517                     pad@p:
   859                           	callstack 0
   860                           
   861                           ; 2 bytes @ 0x16
   862   000517                     	ds	2
   863   000519                     ??_pad:
   864                           
   865                           ; 1 bytes @ 0x18
   866   000519                     	ds	1
   867   00051A                     pad@i:
   868                           	callstack 0
   869                           
   870                           ; 2 bytes @ 0x19
   871   00051A                     	ds	2
   872   00051C                     pad@w:
   873                           	callstack 0
   874                           
   875                           ; 2 bytes @ 0x1B
   876   00051C                     	ds	2
   877   00051E                     dtoa@fp:
   878                           	callstack 0
   879                           
   880                           ; 2 bytes @ 0x1D
   881   00051E                     	ds	2
   882   000520                     dtoa@d:
   883                           	callstack 0
   884                           
   885                           ; 2 bytes @ 0x1F
   886   000520                     	ds	2
   887   000522                     _dtoa$3388:
   888                           	callstack 0
   889                           
   890                           ; 2 bytes @ 0x21
   891   000522                     	ds	2
   892   000524                     dtoa@p:
   893                           	callstack 0
   894                           
   895                           ; 2 bytes @ 0x23
   896   000524                     	ds	2
   897   000526                     dtoa@w:
   898                           	callstack 0
   899                           
   900                           ; 2 bytes @ 0x25
   901   000526                     	ds	2
   902   000528                     dtoa@i:
   903                           	callstack 0
   904                           
   905                           ; 2 bytes @ 0x27
   906   000528                     	ds	2
   907   00052A                     dtoa@s:
   908                           	callstack 0
   909                           
   910                           ; 1 bytes @ 0x29
   911   00052A                     	ds	1
   912   00052B                     vfpfcnvrt@fp:
   913                           	callstack 0
   914                           
   915                           ; 2 bytes @ 0x2A
   916   00052B                     	ds	2
   917   00052D                     vfpfcnvrt@fmt:
   918                           	callstack 0
   919                           
   920                           ; 2 bytes @ 0x2C
   921   00052D                     	ds	2
   922   00052F                     vfpfcnvrt@ap:
   923                           	callstack 0
   924                           
   925                           ; 2 bytes @ 0x2E
   926   00052F                     	ds	2
   927   000531                     ??_vfpfcnvrt:
   928                           
   929                           ; 1 bytes @ 0x30
   930   000531                     	ds	2
   931   000533                     vfpfcnvrt@convarg:
   932                           	callstack 0
   933                           
   934                           ; 4 bytes @ 0x32
   935   000533                     	ds	4
   936   000537                     vfpfcnvrt@cp:
   937                           	callstack 0
   938                           
   939                           ; 2 bytes @ 0x36
   940   000537                     	ds	2
   941   000539                     ?_vfprintf:
   942                           	callstack 0
   943   000539                     vfprintf@fp:
   944                           	callstack 0
   945                           
   946                           ; 2 bytes @ 0x38
   947   000539                     	ds	2
   948   00053B                     vfprintf@fmt:
   949                           	callstack 0
   950                           
   951                           ; 2 bytes @ 0x3A
   952   00053B                     	ds	2
   953   00053D                     vfprintf@ap:
   954                           	callstack 0
   955                           
   956                           ; 2 bytes @ 0x3C
   957   00053D                     	ds	2
   958   00053F                     vfprintf@cfmt:
   959                           	callstack 0
   960                           
   961                           ; 2 bytes @ 0x3E
   962   00053F                     	ds	2
   963   000541                     ?_printf:
   964                           	callstack 0
   965   000541                     printf@fmt:
   966                           	callstack 0
   967                           
   968                           ; 2 bytes @ 0x40
   969   000541                     	ds	4
   970   000545                     printf@ap:
   971                           	callstack 0
   972                           
   973                           ; 2 bytes @ 0x44
   974   000545                     	ds	2
   975   000547                     ??_ADC:
   976   000547                     ??_VSR:
   977   000547                     ??_PWM:
   978                           
   979                           ; 1 bytes @ 0x46
   980   000547                     	ds	3
   981   00054A                     ??_main:
   982                           
   983                           ; 1 bytes @ 0x49
   984   00054A                     	ds	2
   985                           
   986 ;;
   987 ;;Main: autosize = 0, tempsize = 2, incstack = 0, save=0
   988 ;;
   989 ;; *************** function _main *****************
   990 ;; Defined at:
   991 ;;		line 46 in file "main.c"
   992 ;; Parameters:    Size  Location     Type
   993 ;;		None
   994 ;; Auto vars:     Size  Location     Type
   995 ;;		None
   996 ;; Return value:  Size  Location     Type
   997 ;;                  1    wreg      void 
   998 ;; Registers used:
   999 ;;		wreg, fsr1l, fsr1h, fsr2l, fsr2h, status,2, status,0, tblptrl, tblptrh, tblptru, cstack
  1000 ;; Tracked objects:
  1001 ;;		On entry : 0/0
  1002 ;;		On exit  : 0/0
  1003 ;;		Unchanged: 0/0
  1004 ;; Data sizes:     COMRAM   BANK5   BANK6   BANK7   BANK8   BANK9  BANK10  BANK11  BANK12  BANK13  BANK14  BANK15  BANK1
      +6  BANK17  BANK18  BANK19  BANK20  BANK21  BANK22  BANK23  BANK24  BANK25  BANK26  BANK27  BANK28  BANK29  BANK30  BANK3
      +1  BANK32  BANK33  BANK34  BANK35  BANK36
  1005 ;;      Params:         0       0       0       0       0       0       0       0       0       0       0       0       
      +0       0       0       0       0       0       0       0       0       0       0       0       0       0       0       
      +0       0       0       0       0       0
  1006 ;;      Locals:         0       0       0       0       0       0       0       0       0       0       0       0       
      +0       0       0       0       0       0       0       0       0       0       0       0       0       0       0       
      +0       0       0       0       0       0
  1007 ;;      Temps:          2       0       0       0       0       0       0       0       0       0       0       0       
      +0       0       0       0       0       0       0       0       0       0       0       0       0       0       0       
      +0       0       0       0       0       0
  1008 ;;      Totals:         2       0       0       0       0       0       0       0       0       0       0       0       
      +0       0       0       0       0       0       0       0       0       0       0       0       0       0       0       
      +0       0       0       0       0       0
  1009 ;;Total ram usage:        2 bytes
  1010 ;; Hardware stack levels required when called: 12
  1011 ;; This function calls:
  1012 ;;		_ADC
  1013 ;;		_Blink
  1014 ;;		_EEPROM
  1015 ;;		_HelloWorld
  1016 ;;		_Interrupts
  1017 ;;		_PWM
  1018 ;;		_Rotate
  1019 ;;		_SYSTEM_Initialize
  1020 ;;		_SleepWakeUp
  1021 ;;		_Timers
  1022 ;;		_VSR
  1023 ;;		_checkButtonS1
  1024 ;;		_nextLab
  1025 ;; This function is called by:
  1026 ;;		Startup code after reset
  1027 ;; This function uses a non-reentrant model
  1028 ;;
  1029                           
  1030                           	psect	text0
  1031   00295A                     __ptext0:
  1032                           	callstack 0
  1033   00295A                     _main:
  1034                           	callstack 115
  1035   00295A                     
  1036                           ;main.c: 47:     SYSTEM_Initialize();
  1037   00295A  EC60  F01B         	call	_SYSTEM_Initialize	;wreg free
  1038   00295E  9EA1               	bcf	1185,7,c	;volatile
  1039   002960                     l4097:
  1040                           
  1041                           ;main.c: 70:         checkButtonS1();
  1042   002960  EC5D  F01A         	call	_checkButtonS1	;wreg free
  1043                           
  1044                           ;main.c: 71:         switch (labNumber) {
  1045   002964  EFDC  F014         	goto	l4121
  1046   002968                     l4099:
  1047   002968  ECEC  F01A         	call	_HelloWorld	;wreg free
  1048                           
  1049                           ;main.c: 73:                 break;
  1050   00296C  EF11  F015         	goto	l4123
  1051   002970                     l4101:
  1052   002970  EC00  F017         	call	_Blink	;wreg free
  1053                           
  1054                           ;main.c: 75:                 break;
  1055   002974  EF11  F015         	goto	l4123
  1056   002978                     l4103:
  1057   002978  EC1E  F019         	call	_Rotate	;wreg free
  1058                           
  1059                           ;main.c: 77:                 break;
  1060   00297C  EF11  F015         	goto	l4123
  1061   002980                     l4105:
  1062   002980  ECDA  F017         	call	_ADC	;wreg free
  1063                           
  1064                           ;main.c: 79:                 break;
  1065   002984  EF11  F015         	goto	l4123
  1066   002988                     l4107:
  1067   002988  EC4C  F016         	call	_VSR	;wreg free
  1068                           
  1069                           ;main.c: 81:                 break;
  1070   00298C  EF11  F015         	goto	l4123
  1071   002990                     l4109:
  1072   002990  EC4D  F017         	call	_PWM	;wreg free
  1073                           
  1074                           ;main.c: 83:                 break;
  1075   002994  EF11  F015         	goto	l4123
  1076   002998                     l4111:
  1077   002998  EC1F  F018         	call	_Timers	;wreg free
  1078                           
  1079                           ;main.c: 85:                 break;
  1080   00299C  EF11  F015         	goto	l4123
  1081   0029A0                     l4113:
  1082   0029A0  EC84  F01A         	call	_Interrupts	;wreg free
  1083                           
  1084                           ;main.c: 87:                 break;
  1085   0029A4  EF11  F015         	goto	l4123
  1086   0029A8                     l4115:
  1087   0029A8  EC0A  F01A         	call	_SleepWakeUp	;wreg free
  1088                           
  1089                           ;main.c: 89:                 break;
  1090   0029AC  EF11  F015         	goto	l4123
  1091   0029B0                     l4117:
  1092   0029B0  EC62  F018         	call	_EEPROM	;wreg free
  1093                           
  1094                           ;main.c: 91:                 break;
  1095   0029B4  EF11  F015         	goto	l4123
  1096   0029B8                     l4121:
  1097   0029B8  505F               	movf	_labNumber^(0+1280),w,c
  1098   0029BA  6E4A               	movwf	??_main^(0+1280),c
  1099   0029BC  6A4B               	clrf	(??_main+1)^(0+1280),c
  1100                           
  1101                           ; Switch on 2 bytes has been partitioned into a top level switch of size 1, and 1 sub-sw
      +                          itches
  1102                           ; Switch size 1, requested type "simple"
  1103                           ; Number of cases is 1, Range of values is 0 to 0
  1104                           ; switch strategies available:
  1105                           ; Name         Instructions Cycles
  1106                           ; simple_byte            4     3 (average)
  1107                           ;	Chosen strategy is simple_byte
  1108   0029BE  504B               	movf	(??_main+1)^(0+1280),w,c
  1109   0029C0  0A00               	xorlw	0	; case 0
  1110   0029C2  B4D8               	btfsc	status,2,c
  1111   0029C4  EFE6  F014         	goto	l4151
  1112   0029C8  EF11  F015         	goto	l4123
  1113   0029CC                     l4151:
  1114                           
  1115                           ; Switch size 1, requested type "simple"
  1116                           ; Number of cases is 10, Range of values is 1 to 10
  1117                           ; switch strategies available:
  1118                           ; Name         Instructions Cycles
  1119                           ; simple_byte           31    16 (average)
  1120                           ;	Chosen strategy is simple_byte
  1121   0029CC  504A               	movf	??_main^(0+1280),w,c
  1122   0029CE  0A01               	xorlw	1	; case 1
  1123   0029D0  B4D8               	btfsc	status,2,c
  1124   0029D2  EFB4  F014         	goto	l4099
  1125   0029D6  0A03               	xorlw	3	; case 2
  1126   0029D8  B4D8               	btfsc	status,2,c
  1127   0029DA  EFB8  F014         	goto	l4101
  1128   0029DE  0A01               	xorlw	1	; case 3
  1129   0029E0  B4D8               	btfsc	status,2,c
  1130   0029E2  EFBC  F014         	goto	l4103
  1131   0029E6  0A07               	xorlw	7	; case 4
  1132   0029E8  B4D8               	btfsc	status,2,c
  1133   0029EA  EFC0  F014         	goto	l4105
  1134   0029EE  0A01               	xorlw	1	; case 5
  1135   0029F0  B4D8               	btfsc	status,2,c
  1136   0029F2  EFC4  F014         	goto	l4107
  1137   0029F6  0A03               	xorlw	3	; case 6
  1138   0029F8  B4D8               	btfsc	status,2,c
  1139   0029FA  EFC8  F014         	goto	l4109
  1140   0029FE  0A01               	xorlw	1	; case 7
  1141   002A00  B4D8               	btfsc	status,2,c
  1142   002A02  EFCC  F014         	goto	l4111
  1143   002A06  0A0F               	xorlw	15	; case 8
  1144   002A08  B4D8               	btfsc	status,2,c
  1145   002A0A  EFD0  F014         	goto	l4113
  1146   002A0E  0A01               	xorlw	1	; case 9
  1147   002A10  B4D8               	btfsc	status,2,c
  1148   002A12  EFD4  F014         	goto	l4115
  1149   002A16  0A03               	xorlw	3	; case 10
  1150   002A18  B4D8               	btfsc	status,2,c
  1151   002A1A  EFD8  F014         	goto	l4117
  1152   002A1E  EF11  F015         	goto	l4123
  1153   002A22                     l4123:
  1154                           
  1155                           ;main.c: 94:         if (switchEvent) {
  1156   002A22  505E               	movf	_switchEvent^(0+1280),w,c
  1157   002A24  B4D8               	btfsc	status,2,c
  1158   002A26  EF17  F015         	goto	u2411
  1159   002A2A  EF19  F015         	goto	u2410
  1160   002A2E                     u2411:
  1161   002A2E  EFB0  F014         	goto	l4097
  1162   002A32                     u2410:
  1163   002A32                     
  1164                           ;main.c: 95:             nextLab();
  1165   002A32  EC52  F01C         	call	_nextLab	;wreg free
  1166   002A36  EFB0  F014         	goto	l4097
  1167   002A3A  EF0D  F000         	goto	start
  1168   002A3E                     __end_of_main:
  1169                           	callstack 0
  1170                           
  1171 ;; *************** function _nextLab *****************
  1172 ;; Defined at:
  1173 ;;		line 112 in file "main.c"
  1174 ;; Parameters:    Size  Location     Type
  1175 ;;		None
  1176 ;; Auto vars:     Size  Location     Type
  1177 ;;		None
  1178 ;; Return value:  Size  Location     Type
  1179 ;;                  1    wreg      void 
  1180 ;; Registers used:
  1181 ;;		wreg, status,2, status,0
  1182 ;; Tracked objects:
  1183 ;;		On entry : 0/0
  1184 ;;		On exit  : 0/0
  1185 ;;		Unchanged: 0/0
  1186 ;; Data sizes:     COMRAM   BANK5   BANK6   BANK7   BANK8   BANK9  BANK10  BANK11  BANK12  BANK13  BANK14  BANK15  BANK1
      +6  BANK17  BANK18  BANK19  BANK20  BANK21  BANK22  BANK23  BANK24  BANK25  BANK26  BANK27  BANK28  BANK29  BANK30  BANK3
      +1  BANK32  BANK33  BANK34  BANK35  BANK36
  1187 ;;      Params:         0       0       0       0       0       0       0       0       0       0       0       0       
      +0       0       0       0       0       0       0       0       0       0       0       0       0       0       0       
      +0       0       0       0       0       0
  1188 ;;      Locals:         0       0       0       0       0       0       0       0       0       0       0       0       
      +0       0       0       0       0       0       0       0       0       0       0       0       0       0       0       
      +0       0       0       0       0       0
  1189 ;;      Temps:          0       0       0       0       0       0       0       0       0       0       0       0       
      +0       0       0       0       0       0       0       0       0       0       0       0       0       0       0       
      +0       0       0       0       0       0
  1190 ;;      Totals:         0       0       0       0       0       0       0       0       0       0       0       0       
      +0       0       0       0       0       0       0       0       0       0       0       0       0       0       0       
      +0       0       0       0       0       0
  1191 ;;Total ram usage:        0 bytes
  1192 ;; Hardware stack levels used: 1
  1193 ;; Hardware stack levels required when called: 3
  1194 ;; This function calls:
  1195 ;;		Nothing
  1196 ;; This function is called by:
  1197 ;;		_main
  1198 ;; This function uses a non-reentrant model
  1199 ;;
  1200                           
  1201                           	psect	text1
  1202   0038A4                     __ptext1:
  1203                           	callstack 0
  1204   0038A4                     _nextLab:
  1205                           	callstack 123
  1206   0038A4                     
  1207                           ;main.c: 113:     switchEvent = 0;
  1208   0038A4  0E00               	movlw	0
  1209   0038A6  6E5E               	movwf	_switchEvent^(0+1280),c
  1210   0038A8                     
  1211                           ;main.c: 114:     labNumber++;
  1212   0038A8  2A5F               	incf	_labNumber^(0+1280),f,c
  1213   0038AA                     
  1214                           ;main.c: 116:     if (labNumber > 10) {
  1215   0038AA  0E0A               	movlw	10
  1216   0038AC  645F               	cpfsgt	_labNumber^(0+1280),c
  1217   0038AE  EF5B  F01C         	goto	u901
  1218   0038B2  EF5D  F01C         	goto	u900
  1219   0038B6                     u901:
  1220   0038B6  EF5F  F01C         	goto	l1456
  1221   0038BA                     u900:
  1222   0038BA                     
  1223                           ;main.c: 117:         labNumber = 1;
  1224   0038BA  0E01               	movlw	1
  1225   0038BC  6E5F               	movwf	_labNumber^(0+1280),c
  1226   0038BE                     l1456:
  1227   0038BE  0012               	return		;funcret
  1228   0038C0                     __end_of_nextLab:
  1229                           	callstack 0
  1230                           
  1231 ;; *************** function _checkButtonS1 *****************
  1232 ;; Defined at:
  1233 ;;		line 100 in file "main.c"
  1234 ;; Parameters:    Size  Location     Type
  1235 ;;		None
  1236 ;; Auto vars:     Size  Location     Type
  1237 ;;		None
  1238 ;; Return value:  Size  Location     Type
  1239 ;;                  1    wreg      void 
  1240 ;; Registers used:
  1241 ;;		wreg, status,2
  1242 ;; Tracked objects:
  1243 ;;		On entry : 0/0
  1244 ;;		On exit  : 0/0
  1245 ;;		Unchanged: 0/0
  1246 ;; Data sizes:     COMRAM   BANK5   BANK6   BANK7   BANK8   BANK9  BANK10  BANK11  BANK12  BANK13  BANK14  BANK15  BANK1
      +6  BANK17  BANK18  BANK19  BANK20  BANK21  BANK22  BANK23  BANK24  BANK25  BANK26  BANK27  BANK28  BANK29  BANK30  BANK3
      +1  BANK32  BANK33  BANK34  BANK35  BANK36
  1247 ;;      Params:         0       0       0       0       0       0       0       0       0       0       0       0       
      +0       0       0       0       0       0       0       0       0       0       0       0       0       0       0       
      +0       0       0       0       0       0
  1248 ;;      Locals:         0       0       0       0       0       0       0       0       0       0       0       0       
      +0       0       0       0       0       0       0       0       0       0       0       0       0       0       0       
      +0       0       0       0       0       0
  1249 ;;      Temps:          1       0       0       0       0       0       0       0       0       0       0       0       
      +0       0       0       0       0       0       0       0       0       0       0       0       0       0       0       
      +0       0       0       0       0       0
  1250 ;;      Totals:         1       0       0       0       0       0       0       0       0       0       0       0       
      +0       0       0       0       0       0       0       0       0       0       0       0       0       0       0       
      +0       0       0       0       0       0
  1251 ;;Total ram usage:        1 bytes
  1252 ;; Hardware stack levels used: 1
  1253 ;; Hardware stack levels required when called: 3
  1254 ;; This function calls:
  1255 ;;		Nothing
  1256 ;; This function is called by:
  1257 ;;		_main
  1258 ;; This function uses a non-reentrant model
  1259 ;;
  1260                           
  1261                           	psect	text2
  1262   0034BA                     __ptext2:
  1263                           	callstack 0
  1264   0034BA                     _checkButtonS1:
  1265                           	callstack 123
  1266   0034BA                     
  1267                           ;main.c: 101:     if (btnState == 0) {
  1268   0034BA  505C               	movf	_btnState^(0+1280),w,c
  1269   0034BC  A4D8               	btfss	status,2,c
  1270   0034BE  EF63  F01A         	goto	u871
  1271   0034C2  EF65  F01A         	goto	u870
  1272   0034C6                     u871:
  1273   0034C6  EF78  F01A         	goto	l1448
  1274   0034CA                     u870:
  1275   0034CA                     
  1276                           ;main.c: 102:         if (PORTBbits.RB4 == 0) {
  1277   0034CA  B8CF               	btfsc	207,4,c	;volatile
  1278   0034CC  EF6A  F01A         	goto	u881
  1279   0034D0  EF6C  F01A         	goto	u880
  1280   0034D4                     u881:
  1281   0034D4  EF83  F01A         	goto	l1452
  1282   0034D8                     u880:
  1283   0034D8                     
  1284                           ;main.c: 103:             _delay((unsigned long)((100)*(500000/4000.0)));
  1285   0034D8  0E11               	movlw	17
  1286   0034DA  6E03               	movwf	??_checkButtonS1^(0+1280),c
  1287   0034DC  0E3A               	movlw	58
  1288   0034DE                     u2427:
  1289   0034DE  2EE8               	decfsz	wreg,f,c
  1290   0034E0  D7FE               	bra	u2427
  1291   0034E2  2E03               	decfsz	??_checkButtonS1^(0+1280),f,c
  1292   0034E4  D7FC               	bra	u2427
  1293   0034E6  D000               	nop2	
  1294   0034E8                     
  1295                           ;main.c: 104:             btnState = 1;
  1296   0034E8  0E01               	movlw	1
  1297   0034EA  6E5C               	movwf	_btnState^(0+1280),c
  1298   0034EC  EF83  F01A         	goto	l1452
  1299   0034F0                     l1448:
  1300   0034F0  A8CF               	btfss	207,4,c	;volatile
  1301   0034F2  EF7D  F01A         	goto	u891
  1302   0034F6  EF7F  F01A         	goto	u890
  1303   0034FA                     u891:
  1304   0034FA  EF83  F01A         	goto	l1452
  1305   0034FE                     u890:
  1306   0034FE                     
  1307                           ;main.c: 107:         btnState = 0;
  1308   0034FE  0E00               	movlw	0
  1309   003500  6E5C               	movwf	_btnState^(0+1280),c
  1310                           
  1311                           ;main.c: 108:         switchEvent = 1;
  1312   003502  0E01               	movlw	1
  1313   003504  6E5E               	movwf	_switchEvent^(0+1280),c
  1314   003506                     l1452:
  1315   003506  0012               	return		;funcret
  1316   003508                     __end_of_checkButtonS1:
  1317                           	callstack 0
  1318                           
  1319 ;; *************** function _VSR *****************
  1320 ;; Defined at:
  1321 ;;		line 55 in file "Labs/Lab05_VariableSpeedRotate/VSR.c"
  1322 ;; Parameters:    Size  Location     Type
  1323 ;;		None
  1324 ;; Auto vars:     Size  Location     Type
  1325 ;;		None
  1326 ;; Return value:  Size  Location     Type
  1327 ;;                  1    wreg      void 
  1328 ;; Registers used:
  1329 ;;		wreg, fsr1l, fsr1h, fsr2l, fsr2h, status,2, status,0, tblptrl, tblptrh, tblptru, cstack
  1330 ;; Tracked objects:
  1331 ;;		On entry : 0/0
  1332 ;;		On exit  : 0/0
  1333 ;;		Unchanged: 0/0
  1334 ;; Data sizes:     COMRAM   BANK5   BANK6   BANK7   BANK8   BANK9  BANK10  BANK11  BANK12  BANK13  BANK14  BANK15  BANK1
      +6  BANK17  BANK18  BANK19  BANK20  BANK21  BANK22  BANK23  BANK24  BANK25  BANK26  BANK27  BANK28  BANK29  BANK30  BANK3
      +1  BANK32  BANK33  BANK34  BANK35  BANK36
  1335 ;;      Params:         0       0       0       0       0       0       0       0       0       0       0       0       
      +0       0       0       0       0       0       0       0       0       0       0       0       0       0       0       
      +0       0       0       0       0       0
  1336 ;;      Locals:         0       0       0       0       0       0       0       0       0       0       0       0       
      +0       0       0       0       0       0       0       0       0       0       0       0       0       0       0       
      +0       0       0       0       0       0
  1337 ;;      Temps:          3       0       0       0       0       0       0       0       0       0       0       0       
      +0       0       0       0       0       0       0       0       0       0       0       0       0       0       0       
      +0       0       0       0       0       0
  1338 ;;      Totals:         3       0       0       0       0       0       0       0       0       0       0       0       
      +0       0       0       0       0       0       0       0       0       0       0       0       0       0       0       
      +0       0       0       0       0       0
  1339 ;;Total ram usage:        3 bytes
  1340 ;; Hardware stack levels used: 1
  1341 ;; Hardware stack levels required when called: 11
  1342 ;; This function calls:
  1343 ;;		_ADCC_GetSingleConversion
  1344 ;;		_printf
  1345 ;; This function is called by:
  1346 ;;		_main
  1347 ;; This function uses a non-reentrant model
  1348 ;;
  1349                           
  1350                           	psect	text3
  1351   002C98                     __ptext3:
  1352                           	callstack 0
  1353   002C98                     _VSR:
  1354                           	callstack 115
  1355   002C98                     
  1356                           ;Labs/Lab05_VariableSpeedRotate/VSR.c: 57:     if (labState == 0) {
  1357   002C98  505D               	movf	_labState^(0+1280),w,c
  1358   002C9A  A4D8               	btfss	status,2,c
  1359   002C9C  EF52  F016         	goto	u1861
  1360   002CA0  EF54  F016         	goto	u1860
  1361   002CA4                     u1861:
  1362   002CA4  EF5A  F016         	goto	l3863
  1363   002CA8                     u1860:
  1364   002CA8  0E00               	movlw	0
  1365   002CAA  6EBE               	movwf	190,c	;volatile
  1366   002CAC                     
  1367                           ;Labs/Lab05_VariableSpeedRotate/VSR.c: 61:         rotateReg = 1;
  1368   002CAC  0E01               	movlw	1
  1369   002CAE  6E57               	movwf	_rotateReg@VSR$F164^(0+1280),c
  1370                           
  1371                           ;Labs/Lab05_VariableSpeedRotate/VSR.c: 63:         labState = 1;
  1372   002CB0  0E01               	movlw	1
  1373   002CB2  6E5D               	movwf	_labState^(0+1280),c
  1374   002CB4                     l3863:
  1375                           
  1376                           ;Labs/Lab05_VariableSpeedRotate/VSR.c: 66:     if (labState == 1) {
  1377   002CB4  045D               	decf	_labState^(0+1280),w,c
  1378   002CB6  A4D8               	btfss	status,2,c
  1379   002CB8  EF60  F016         	goto	u1871
  1380   002CBC  EF62  F016         	goto	u1870
  1381   002CC0                     u1871:
  1382   002CC0  EF9D  F016         	goto	l141
  1383   002CC4                     u1870:
  1384   002CC4                     
  1385                           ;Labs/Lab05_VariableSpeedRotate/VSR.c: 68:         delay = ADCC_GetSingleConversion(POT_
      +                          CHANNEL) >> 8;
  1386   002CC4  0E00               	movlw	0
  1387   002CC6  ECA5  F01B         	call	_ADCC_GetSingleConversion
  1388   002CCA  C504  F503         	movff	?_ADCC_GetSingleConversion+1,?_ADCC_GetSingleConversion
  1389   002CCE  6A04               	clrf	(?_ADCC_GetSingleConversion+1)^(0+1280),c
  1390   002CD0  5003               	movf	?_ADCC_GetSingleConversion^(0+1280),w,c
  1391   002CD2  6E58               	movwf	_delay^(0+1280),c
  1392   002CD4                     
  1393                           ;Labs/Lab05_VariableSpeedRotate/VSR.c: 70:         printf("ADC Result: %d\n\r", ADRES >>
      +                           4);
  1394   002CD4  0E7F               	movlw	low STR_1
  1395   002CD6  6E41               	movwf	printf@fmt^(0+1280),c
  1396   002CD8  0E26               	movlw	high STR_1
  1397   002CDA  6E42               	movwf	(printf@fmt+1)^(0+1280),c
  1398   002CDC  C3EA F547          	movff	1002,??_VSR	;volatile
  1399   002CE0  C3EB F548          	movff	1003,??_VSR+1	;volatile
  1400   002CE4  0E04               	movlw	4
  1401   002CE6  6E49               	movwf	(??_VSR+2)^(0+1280),c
  1402   002CE8                     u1885:
  1403   002CE8  90D8               	bcf	status,0,c
  1404   002CEA  3248               	rrcf	(??_VSR+1)^(0+1280),f,c
  1405   002CEC  3247               	rrcf	??_VSR^(0+1280),f,c
  1406   002CEE  2E49               	decfsz	(??_VSR+2)^(0+1280),f,c
  1407   002CF0  EF74  F016         	goto	u1885
  1408   002CF4  C547  F543         	movff	??_VSR,?_printf+2
  1409   002CF8  C548  F544         	movff	??_VSR+1,?_printf+3
  1410   002CFC  ECFC  F01B         	call	_printf	;wreg free
  1411   002D00                     l3869:
  1412                           
  1413                           ;Labs/Lab05_VariableSpeedRotate/VSR.c: 71:         _delay((unsigned long)((2)*(500000/40
      +                          00.0)));
  1414   002D00  0E53               	movlw	83
  1415   002D02                     u2437:
  1416   002D02  2EE8               	decfsz	wreg,f,c
  1417   002D04  D7FE               	bra	u2437
  1418   002D06  F000               	nop	
  1419   002D08                     
  1420                           ;Labs/Lab05_VariableSpeedRotate/VSR.c: 74:         while (delay-- != 0) {
  1421   002D08  0658               	decf	_delay^(0+1280),f,c
  1422   002D0A  2858               	incf	_delay^(0+1280),w,c
  1423   002D0C  A4D8               	btfss	status,2,c
  1424   002D0E  EF8B  F016         	goto	u1891
  1425   002D12  EF8D  F016         	goto	u1890
  1426   002D16                     u1891:
  1427   002D16  EF80  F016         	goto	l3869
  1428   002D1A                     u1890:
  1429   002D1A                     
  1430                           ;Labs/Lab05_VariableSpeedRotate/VSR.c: 79:         LATA = (rotateReg << 4);
  1431   002D1A  3857               	swapf	_rotateReg@VSR$F164^(0+1280),w,c
  1432   002D1C  0BF0               	andlw	240
  1433   002D1E  6EBE               	movwf	190,c	;volatile
  1434                           
  1435                           ;Labs/Lab05_VariableSpeedRotate/VSR.c: 81:         rotateReg <<= 1;
  1436   002D20  90D8               	bcf	status,0,c
  1437   002D22  3657               	rlcf	_rotateReg@VSR$F164^(0+1280),f,c
  1438                           
  1439                           ;Labs/Lab05_VariableSpeedRotate/VSR.c: 84:         if (rotateReg == 16) {
  1440   002D24  0E10               	movlw	16
  1441   002D26  1857               	xorwf	_rotateReg@VSR$F164^(0+1280),w,c
  1442   002D28  A4D8               	btfss	status,2,c
  1443   002D2A  EF99  F016         	goto	u1901
  1444   002D2E  EF9B  F016         	goto	u1900
  1445   002D32                     u1901:
  1446   002D32  EF9D  F016         	goto	l141
  1447   002D36                     u1900:
  1448   002D36                     
  1449                           ;Labs/Lab05_VariableSpeedRotate/VSR.c: 85:             rotateReg = 1;
  1450   002D36  0E01               	movlw	1
  1451   002D38  6E57               	movwf	_rotateReg@VSR$F164^(0+1280),c
  1452   002D3A                     l141:
  1453                           
  1454                           ;Labs/Lab05_VariableSpeedRotate/VSR.c: 89:     if (switchEvent) {
  1455   002D3A  505E               	movf	_switchEvent^(0+1280),w,c
  1456   002D3C  B4D8               	btfsc	status,2,c
  1457   002D3E  EFA3  F016         	goto	u1911
  1458   002D42  EFA5  F016         	goto	u1910
  1459   002D46                     u1911:
  1460   002D46  EFA7  F016         	goto	l147
  1461   002D4A                     u1910:
  1462   002D4A                     
  1463                           ;Labs/Lab05_VariableSpeedRotate/VSR.c: 90:         labState = 0;
  1464   002D4A  0E00               	movlw	0
  1465   002D4C  6E5D               	movwf	_labState^(0+1280),c
  1466   002D4E                     l147:
  1467   002D4E  0012               	return		;funcret
  1468   002D50                     __end_of_VSR:
  1469                           	callstack 0
  1470                           
  1471 ;; *************** function _Timers *****************
  1472 ;; Defined at:
  1473 ;;		line 54 in file "Labs/Lab07_Timers/Timers.c"
  1474 ;; Parameters:    Size  Location     Type
  1475 ;;		None
  1476 ;; Auto vars:     Size  Location     Type
  1477 ;;		None
  1478 ;; Return value:  Size  Location     Type
  1479 ;;                  1    wreg      void 
  1480 ;; Registers used:
  1481 ;;		wreg, status,2, status,0, cstack
  1482 ;; Tracked objects:
  1483 ;;		On entry : 0/0
  1484 ;;		On exit  : 0/0
  1485 ;;		Unchanged: 0/0
  1486 ;; Data sizes:     COMRAM   BANK5   BANK6   BANK7   BANK8   BANK9  BANK10  BANK11  BANK12  BANK13  BANK14  BANK15  BANK1
      +6  BANK17  BANK18  BANK19  BANK20  BANK21  BANK22  BANK23  BANK24  BANK25  BANK26  BANK27  BANK28  BANK29  BANK30  BANK3
      +1  BANK32  BANK33  BANK34  BANK35  BANK36
  1487 ;;      Params:         0       0       0       0       0       0       0       0       0       0       0       0       
      +0       0       0       0       0       0       0       0       0       0       0       0       0       0       0       
      +0       0       0       0       0       0
  1488 ;;      Locals:         0       0       0       0       0       0       0       0       0       0       0       0       
      +0       0       0       0       0       0       0       0       0       0       0       0       0       0       0       
      +0       0       0       0       0       0
  1489 ;;      Temps:          0       0       0       0       0       0       0       0       0       0       0       0       
      +0       0       0       0       0       0       0       0       0       0       0       0       0       0       0       
      +0       0       0       0       0       0
  1490 ;;      Totals:         0       0       0       0       0       0       0       0       0       0       0       0       
      +0       0       0       0       0       0       0       0       0       0       0       0       0       0       0       
      +0       0       0       0       0       0
  1491 ;;Total ram usage:        0 bytes
  1492 ;; Hardware stack levels used: 1
  1493 ;; Hardware stack levels required when called: 5
  1494 ;; This function calls:
  1495 ;;		_TMR1_HasOverflowOccured
  1496 ;;		_TMR1_Reload
  1497 ;;		_TMR1_Start
  1498 ;;		_TMR1_Stop
  1499 ;; This function is called by:
  1500 ;;		_main
  1501 ;; This function uses a non-reentrant model
  1502 ;;
  1503                           
  1504                           	psect	text4
  1505   00303E                     __ptext4:
  1506                           	callstack 0
  1507   00303E                     _Timers:
  1508                           	callstack 121
  1509   00303E                     
  1510                           ;Labs/Lab07_Timers/Timers.c: 56:     if (labState == 0) {
  1511   00303E  505D               	movf	_labState^(0+1280),w,c
  1512   003040  A4D8               	btfss	status,2,c
  1513   003042  EF25  F018         	goto	u1961
  1514   003046  EF27  F018         	goto	u1960
  1515   00304A                     u1961:
  1516   00304A  EF30  F018         	goto	l3915
  1517   00304E                     u1960:
  1518   00304E  0E00               	movlw	0
  1519   003050  6EBE               	movwf	190,c	;volatile
  1520   003052  88BE               	bsf	190,4,c	;volatile
  1521   003054                     
  1522                           ;Labs/Lab07_Timers/Timers.c: 61:         rotateReg = 1;
  1523   003054  0E01               	movlw	1
  1524   003056  6E56               	movwf	_rotateReg@Timers$F243^(0+1280),c
  1525   003058                     
  1526                           ;Labs/Lab07_Timers/Timers.c: 63:         TMR1_Start();
  1527   003058  ECF5  F01C         	call	_TMR1_Start	;wreg free
  1528   00305C                     
  1529                           ;Labs/Lab07_Timers/Timers.c: 65:         labState = 1;
  1530   00305C  0E01               	movlw	1
  1531   00305E  6E5D               	movwf	_labState^(0+1280),c
  1532   003060                     l3915:
  1533                           
  1534                           ;Labs/Lab07_Timers/Timers.c: 68:     if (labState == 1) {
  1535   003060  045D               	decf	_labState^(0+1280),w,c
  1536   003062  A4D8               	btfss	status,2,c
  1537   003064  EF36  F018         	goto	u1971
  1538   003068  EF38  F018         	goto	u1970
  1539   00306C                     u1971:
  1540   00306C  EF55  F018         	goto	l3931
  1541   003070                     u1970:
  1542   003070                     l3919:
  1543   003070  EC8A  F01C         	call	_TMR1_HasOverflowOccured	;wreg free
  1544   003074  0900               	iorlw	0
  1545   003076  B4D8               	btfsc	status,2,c
  1546   003078  EF40  F018         	goto	u1981
  1547   00307C  EF42  F018         	goto	u1980
  1548   003080                     u1981:
  1549   003080  EF38  F018         	goto	l3919
  1550   003084                     u1980:
  1551   003084                     
  1552                           ;Labs/Lab07_Timers/Timers.c: 70:         TMR1IF = 0;
  1553   003084  98B1               	bcf	1201,4,c	;volatile
  1554   003086                     
  1555                           ;Labs/Lab07_Timers/Timers.c: 71:         TMR1_Reload();
  1556   003086  ECDA  F01C         	call	_TMR1_Reload	;wreg free
  1557   00308A                     
  1558                           ;Labs/Lab07_Timers/Timers.c: 73:         rotateReg <<= 1;
  1559   00308A  90D8               	bcf	status,0,c
  1560   00308C  3656               	rlcf	_rotateReg@Timers$F243^(0+1280),f,c
  1561   00308E                     
  1562                           ;Labs/Lab07_Timers/Timers.c: 76:         if (rotateReg == 16) {
  1563   00308E  0E10               	movlw	16
  1564   003090  1856               	xorwf	_rotateReg@Timers$F243^(0+1280),w,c
  1565   003092  A4D8               	btfss	status,2,c
  1566   003094  EF4E  F018         	goto	u1991
  1567   003098  EF50  F018         	goto	u1990
  1568   00309C                     u1991:
  1569   00309C  EF52  F018         	goto	l3929
  1570   0030A0                     u1990:
  1571   0030A0                     
  1572                           ;Labs/Lab07_Timers/Timers.c: 77:             rotateReg = 1;
  1573   0030A0  0E01               	movlw	1
  1574   0030A2  6E56               	movwf	_rotateReg@Timers$F243^(0+1280),c
  1575   0030A4                     l3929:
  1576                           
  1577                           ;Labs/Lab07_Timers/Timers.c: 81:         LATA = (rotateReg << 4);
  1578   0030A4  3856               	swapf	_rotateReg@Timers$F243^(0+1280),w,c
  1579   0030A6  0BF0               	andlw	240
  1580   0030A8  6EBE               	movwf	190,c	;volatile
  1581   0030AA                     l3931:
  1582                           
  1583                           ;Labs/Lab07_Timers/Timers.c: 84:     if (switchEvent) {
  1584   0030AA  505E               	movf	_switchEvent^(0+1280),w,c
  1585   0030AC  B4D8               	btfsc	status,2,c
  1586   0030AE  EF5B  F018         	goto	u2001
  1587   0030B2  EF5D  F018         	goto	u2000
  1588   0030B6                     u2001:
  1589   0030B6  EF61  F018         	goto	l233
  1590   0030BA                     u2000:
  1591   0030BA                     
  1592                           ;Labs/Lab07_Timers/Timers.c: 85:         TMR1_Stop();
  1593   0030BA  ECF2  F01C         	call	_TMR1_Stop	;wreg free
  1594   0030BE                     
  1595                           ;Labs/Lab07_Timers/Timers.c: 87:         labState = 0;
  1596   0030BE  0E00               	movlw	0
  1597   0030C0  6E5D               	movwf	_labState^(0+1280),c
  1598   0030C2                     l233:
  1599   0030C2  0012               	return		;funcret
  1600   0030C4                     __end_of_Timers:
  1601                           	callstack 0
  1602                           
  1603 ;; *************** function _SleepWakeUp *****************
  1604 ;; Defined at:
  1605 ;;		line 55 in file "Labs/Lab09_SleepWakeup/SleepWakeUp.c"
  1606 ;; Parameters:    Size  Location     Type
  1607 ;;		None
  1608 ;; Auto vars:     Size  Location     Type
  1609 ;;		None
  1610 ;; Return value:  Size  Location     Type
  1611 ;;                  1    wreg      void 
  1612 ;; Registers used:
  1613 ;;		wreg, status,2, status,0
  1614 ;; Tracked objects:
  1615 ;;		On entry : 0/0
  1616 ;;		On exit  : 0/0
  1617 ;;		Unchanged: 0/0
  1618 ;; Data sizes:     COMRAM   BANK5   BANK6   BANK7   BANK8   BANK9  BANK10  BANK11  BANK12  BANK13  BANK14  BANK15  BANK1
      +6  BANK17  BANK18  BANK19  BANK20  BANK21  BANK22  BANK23  BANK24  BANK25  BANK26  BANK27  BANK28  BANK29  BANK30  BANK3
      +1  BANK32  BANK33  BANK34  BANK35  BANK36
  1619 ;;      Params:         0       0       0       0       0       0       0       0       0       0       0       0       
      +0       0       0       0       0       0       0       0       0       0       0       0       0       0       0       
      +0       0       0       0       0       0
  1620 ;;      Locals:         0       0       0       0       0       0       0       0       0       0       0       0       
      +0       0       0       0       0       0       0       0       0       0       0       0       0       0       0       
      +0       0       0       0       0       0
  1621 ;;      Temps:          0       0       0       0       0       0       0       0       0       0       0       0       
      +0       0       0       0       0       0       0       0       0       0       0       0       0       0       0       
      +0       0       0       0       0       0
  1622 ;;      Totals:         0       0       0       0       0       0       0       0       0       0       0       0       
      +0       0       0       0       0       0       0       0       0       0       0       0       0       0       0       
      +0       0       0       0       0       0
  1623 ;;Total ram usage:        0 bytes
  1624 ;; Hardware stack levels used: 1
  1625 ;; Hardware stack levels required when called: 3
  1626 ;; This function calls:
  1627 ;;		Nothing
  1628 ;; This function is called by:
  1629 ;;		_main
  1630 ;; This function uses a non-reentrant model
  1631 ;;
  1632                           
  1633                           	psect	text5
  1634   003414                     __ptext5:
  1635                           	callstack 0
  1636   003414                     _SleepWakeUp:
  1637                           	callstack 123
  1638   003414                     
  1639                           ;Labs/Lab09_SleepWakeup/SleepWakeUp.c: 57:     if (labState == 0) {
  1640   003414  505D               	movf	_labState^(0+1280),w,c
  1641   003416  A4D8               	btfss	status,2,c
  1642   003418  EF10  F01A         	goto	u781
  1643   00341C  EF12  F01A         	goto	u780
  1644   003420                     u781:
  1645   003420  EF1B  F01A         	goto	l2859
  1646   003424                     u780:
  1647   003424                     
  1648                           ;Labs/Lab09_SleepWakeup/SleepWakeUp.c: 58:         LATAbits.LATA4 = LATAbits.LATA6 = 1;
  1649   003424  8CBE               	bsf	190,6,c	;volatile
  1650   003426  88BE               	bsf	190,4,c	;volatile
  1651                           
  1652                           ;Labs/Lab09_SleepWakeup/SleepWakeUp.c: 59:         LATAbits.LATA5 = LATAbits.LATA7 = 0;
  1653   003428  9EBE               	bcf	190,7,c	;volatile
  1654   00342A  9ABE               	bcf	190,5,c	;volatile
  1655                           
  1656                           ;Labs/Lab09_SleepWakeup/SleepWakeUp.c: 61:         (WDTCON0bits.SWDTEN = 1);
  1657   00342C  0100               	movlb	0	; () banked
  1658   00342E  8178               	bsf	120,0,b	;volatile
  1659   003430  0003               	sleep		;# 
  1660   003432                     
  1661                           ;Labs/Lab09_SleepWakeup/SleepWakeUp.c: 65:         labState = 1;
  1662   003432  0E01               	movlw	1
  1663   003434  6E5D               	movwf	_labState^(0+1280),c
  1664   003436                     l2859:
  1665                           
  1666                           ;Labs/Lab09_SleepWakeup/SleepWakeUp.c: 68:     if (labState == 1) {
  1667   003436  045D               	decf	_labState^(0+1280),w,c
  1668   003438  A4D8               	btfss	status,2,c
  1669   00343A  EF21  F01A         	goto	u791
  1670   00343E  EF23  F01A         	goto	u790
  1671   003442                     u791:
  1672   003442  EF29  F01A         	goto	l2863
  1673   003446                     u790:
  1674   003446                     
  1675                           ;Labs/Lab09_SleepWakeup/SleepWakeUp.c: 71:         LATAbits.LATA4 = LATAbits.LATA6 = 0;
  1676   003446  9CBE               	bcf	190,6,c	;volatile
  1677   003448  98BE               	bcf	190,4,c	;volatile
  1678                           
  1679                           ;Labs/Lab09_SleepWakeup/SleepWakeUp.c: 72:         LATAbits.LATA5 = LATAbits.LATA7 = 1;
  1680   00344A  8EBE               	bsf	190,7,c	;volatile
  1681   00344C  8ABE               	bsf	190,5,c	;volatile
  1682                           
  1683                           ;Labs/Lab09_SleepWakeup/SleepWakeUp.c: 74:         (WDTCON0bits.SWDTEN = 0);
  1684   00344E  0100               	movlb	0	; () banked
  1685   003450  9178               	bcf	120,0,b	;volatile
  1686   003452                     l2863:
  1687                           
  1688                           ;Labs/Lab09_SleepWakeup/SleepWakeUp.c: 77:     if (switchEvent) {
  1689   003452  505E               	movf	_switchEvent^(0+1280),w,c
  1690   003454  B4D8               	btfsc	status,2,c
  1691   003456  EF2F  F01A         	goto	u801
  1692   00345A  EF31  F01A         	goto	u800
  1693   00345E                     u801:
  1694   00345E  EF33  F01A         	goto	l291
  1695   003462                     u800:
  1696   003462                     
  1697                           ;Labs/Lab09_SleepWakeup/SleepWakeUp.c: 78:         labState = 0;
  1698   003462  0E00               	movlw	0
  1699   003464  6E5D               	movwf	_labState^(0+1280),c
  1700   003466                     l291:
  1701   003466  0012               	return		;funcret
  1702   003468                     __end_of_SleepWakeUp:
  1703                           	callstack 0
  1704                           
  1705 ;; *************** function _SYSTEM_Initialize *****************
  1706 ;; Defined at:
  1707 ;;		line 37 in file "mcc_generated_files/system/src/system.c"
  1708 ;; Parameters:    Size  Location     Type
  1709 ;;		None
  1710 ;; Auto vars:     Size  Location     Type
  1711 ;;		None
  1712 ;; Return value:  Size  Location     Type
  1713 ;;                  1    wreg      void 
  1714 ;; Registers used:
  1715 ;;		wreg, status,2, status,0, cstack
  1716 ;; Tracked objects:
  1717 ;;		On entry : 0/0
  1718 ;;		On exit  : 0/0
  1719 ;;		Unchanged: 0/0
  1720 ;; Data sizes:     COMRAM   BANK5   BANK6   BANK7   BANK8   BANK9  BANK10  BANK11  BANK12  BANK13  BANK14  BANK15  BANK1
      +6  BANK17  BANK18  BANK19  BANK20  BANK21  BANK22  BANK23  BANK24  BANK25  BANK26  BANK27  BANK28  BANK29  BANK30  BANK3
      +1  BANK32  BANK33  BANK34  BANK35  BANK36
  1721 ;;      Params:         0       0       0       0       0       0       0       0       0       0       0       0       
      +0       0       0       0       0       0       0       0       0       0       0       0       0       0       0       
      +0       0       0       0       0       0
  1722 ;;      Locals:         0       0       0       0       0       0       0       0       0       0       0       0       
      +0       0       0       0       0       0       0       0       0       0       0       0       0       0       0       
      +0       0       0       0       0       0
  1723 ;;      Temps:          0       0       0       0       0       0       0       0       0       0       0       0       
      +0       0       0       0       0       0       0       0       0       0       0       0       0       0       0       
      +0       0       0       0       0       0
  1724 ;;      Totals:         0       0       0       0       0       0       0       0       0       0       0       0       
      +0       0       0       0       0       0       0       0       0       0       0       0       0       0       0       
      +0       0       0       0       0       0
  1725 ;;Total ram usage:        0 bytes
  1726 ;; Hardware stack levels used: 1
  1727 ;; Hardware stack levels required when called: 5
  1728 ;; This function calls:
  1729 ;;		_ADCC_Initialize
  1730 ;;		_CLC1_Initialize
  1731 ;;		_CLOCK_Initialize
  1732 ;;		_INTERRUPT_Initialize
  1733 ;;		_NVM_Initialize
  1734 ;;		_PIN_MANAGER_Initialize
  1735 ;;		_PWM3_16BIT_Initialize
  1736 ;;		_TMR0_Initialize
  1737 ;;		_TMR1_Initialize
  1738 ;;		_TMR2_Initialize
  1739 ;;		_UART1_Initialize
  1740 ;; This function is called by:
  1741 ;;		_main
  1742 ;; This function uses a non-reentrant model
  1743 ;;
  1744                           
  1745                           	psect	text6
  1746   0036C0                     __ptext6:
  1747                           	callstack 0
  1748   0036C0                     _SYSTEM_Initialize:
  1749                           	callstack 121
  1750   0036C0                     
  1751                           ;mcc_generated_files/system/src/system.c: 39:     CLOCK_Initialize();
  1752   0036C0  EC60  F01C         	call	_CLOCK_Initialize	;wreg free
  1753                           
  1754                           ;mcc_generated_files/system/src/system.c: 40:     PIN_MANAGER_Initialize();
  1755   0036C4  EC1F  F015         	call	_PIN_MANAGER_Initialize	;wreg free
  1756                           
  1757                           ;mcc_generated_files/system/src/system.c: 41:     ADCC_Initialize();
  1758   0036C8  EC57  F019         	call	_ADCC_Initialize	;wreg free
  1759                           
  1760                           ;mcc_generated_files/system/src/system.c: 42:     CLC1_Initialize();
  1761   0036CC  EC2C  F01B         	call	_CLC1_Initialize	;wreg free
  1762   0036D0                     
  1763                           ;mcc_generated_files/system/src/system.c: 43:     NVM_Initialize();
  1764   0036D0  ECE6  F01C         	call	_NVM_Initialize	;wreg free
  1765   0036D4                     
  1766                           ;mcc_generated_files/system/src/system.c: 44:     PWM3_16BIT_Initialize();
  1767   0036D4  ECA4  F018         	call	_PWM3_16BIT_Initialize	;wreg free
  1768   0036D8                     
  1769                           ;mcc_generated_files/system/src/system.c: 45:     TMR0_Initialize();
  1770   0036D8  ECD2  F01B         	call	_TMR0_Initialize	;wreg free
  1771   0036DC                     
  1772                           ;mcc_generated_files/system/src/system.c: 46:     TMR1_Initialize();
  1773   0036DC  EC87  F019         	call	_TMR1_Initialize	;wreg free
  1774   0036E0                     
  1775                           ;mcc_generated_files/system/src/system.c: 47:     TMR2_Initialize();
  1776   0036E0  EC77  F01B         	call	_TMR2_Initialize	;wreg free
  1777   0036E4                     
  1778                           ;mcc_generated_files/system/src/system.c: 48:     UART1_Initialize();
  1779   0036E4  EC95  F017         	call	_UART1_Initialize	;wreg free
  1780   0036E8                     
  1781                           ;mcc_generated_files/system/src/system.c: 49:     INTERRUPT_Initialize();
  1782   0036E8  ECCC  F01A         	call	_INTERRUPT_Initialize	;wreg free
  1783   0036EC  0012               	return		;funcret
  1784   0036EE                     __end_of_SYSTEM_Initialize:
  1785                           	callstack 0
  1786                           
  1787 ;; *************** function _UART1_Initialize *****************
  1788 ;; Defined at:
  1789 ;;		line 95 in file "mcc_generated_files/uart/src/uart1.c"
  1790 ;; Parameters:    Size  Location     Type
  1791 ;;		None
  1792 ;; Auto vars:     Size  Location     Type
  1793 ;;		None
  1794 ;; Return value:  Size  Location     Type
  1795 ;;                  1    wreg      void 
  1796 ;; Registers used:
  1797 ;;		wreg, status,2, status,0, cstack
  1798 ;; Tracked objects:
  1799 ;;		On entry : 0/0
  1800 ;;		On exit  : 0/0
  1801 ;;		Unchanged: 0/0
  1802 ;; Data sizes:     COMRAM   BANK5   BANK6   BANK7   BANK8   BANK9  BANK10  BANK11  BANK12  BANK13  BANK14  BANK15  BANK1
      +6  BANK17  BANK18  BANK19  BANK20  BANK21  BANK22  BANK23  BANK24  BANK25  BANK26  BANK27  BANK28  BANK29  BANK30  BANK3
      +1  BANK32  BANK33  BANK34  BANK35  BANK36
  1803 ;;      Params:         0       0       0       0       0       0       0       0       0       0       0       0       
      +0       0       0       0       0       0       0       0       0       0       0       0       0       0       0       
      +0       0       0       0       0       0
  1804 ;;      Locals:         0       0       0       0       0       0       0       0       0       0       0       0       
      +0       0       0       0       0       0       0       0       0       0       0       0       0       0       0       
      +0       0       0       0       0       0
  1805 ;;      Temps:          0       0       0       0       0       0       0       0       0       0       0       0       
      +0       0       0       0       0       0       0       0       0       0       0       0       0       0       0       
      +0       0       0       0       0       0
  1806 ;;      Totals:         0       0       0       0       0       0       0       0       0       0       0       0       
      +0       0       0       0       0       0       0       0       0       0       0       0       0       0       0       
      +0       0       0       0       0       0
  1807 ;;Total ram usage:        0 bytes
  1808 ;; Hardware stack levels used: 1
  1809 ;; Hardware stack levels required when called: 4
  1810 ;; This function calls:
  1811 ;;		_UART1_FramingErrorCallbackRegister
  1812 ;;		_UART1_OverrunErrorCallbackRegister
  1813 ;;		_UART1_ParityErrorCallbackRegister
  1814 ;; This function is called by:
  1815 ;;		_SYSTEM_Initialize
  1816 ;; This function uses a non-reentrant model
  1817 ;;
  1818                           
  1819                           	psect	text7
  1820   002F2A                     __ptext7:
  1821                           	callstack 0
  1822   002F2A                     _UART1_Initialize:
  1823                           	callstack 121
  1824   002F2A                     
  1825                           ;mcc_generated_files/uart/src/uart1.c: 101:     U1RXB = 0x0;
  1826   002F2A  0E00               	movlw	0
  1827   002F2C  0102               	movlb	2	; () banked
  1828   002F2E  6FA1               	movwf	161,b	;volatile
  1829                           
  1830                           ;mcc_generated_files/uart/src/uart1.c: 103:     U1RXCHK = 0x0;
  1831   002F30  0E00               	movlw	0
  1832   002F32  6FA2               	movwf	162,b	;volatile
  1833                           
  1834                           ;mcc_generated_files/uart/src/uart1.c: 105:     U1TXB = 0x0;
  1835   002F34  0E00               	movlw	0
  1836   002F36  6FA3               	movwf	163,b	;volatile
  1837                           
  1838                           ;mcc_generated_files/uart/src/uart1.c: 107:     U1TXCHK = 0x0;
  1839   002F38  0E00               	movlw	0
  1840   002F3A  6FA4               	movwf	164,b	;volatile
  1841                           
  1842                           ;mcc_generated_files/uart/src/uart1.c: 109:     U1P1L = 0x0;
  1843   002F3C  0E00               	movlw	0
  1844   002F3E  6FA5               	movwf	165,b	;volatile
  1845                           
  1846                           ;mcc_generated_files/uart/src/uart1.c: 111:     U1P1H = 0x0;
  1847   002F40  0E00               	movlw	0
  1848   002F42  6FA6               	movwf	166,b	;volatile
  1849                           
  1850                           ;mcc_generated_files/uart/src/uart1.c: 113:     U1P2L = 0x0;
  1851   002F44  0E00               	movlw	0
  1852   002F46  6FA7               	movwf	167,b	;volatile
  1853                           
  1854                           ;mcc_generated_files/uart/src/uart1.c: 115:     U1P2H = 0x0;
  1855   002F48  0E00               	movlw	0
  1856   002F4A  6FA8               	movwf	168,b	;volatile
  1857                           
  1858                           ;mcc_generated_files/uart/src/uart1.c: 117:     U1P3L = 0x0;
  1859   002F4C  0E00               	movlw	0
  1860   002F4E  6FA9               	movwf	169,b	;volatile
  1861                           
  1862                           ;mcc_generated_files/uart/src/uart1.c: 119:     U1P3H = 0x0;
  1863   002F50  0E00               	movlw	0
  1864   002F52  6FAA               	movwf	170,b	;volatile
  1865                           
  1866                           ;mcc_generated_files/uart/src/uart1.c: 121:     U1CON0 = 0xB0;
  1867   002F54  0EB0               	movlw	176
  1868   002F56  6FAB               	movwf	171,b	;volatile
  1869                           
  1870                           ;mcc_generated_files/uart/src/uart1.c: 123:     U1CON1 = 0x80;
  1871   002F58  0E80               	movlw	128
  1872   002F5A  6FAC               	movwf	172,b	;volatile
  1873                           
  1874                           ;mcc_generated_files/uart/src/uart1.c: 125:     U1CON2 = 0x8;
  1875   002F5C  0E08               	movlw	8
  1876   002F5E  6FAD               	movwf	173,b	;volatile
  1877                           
  1878                           ;mcc_generated_files/uart/src/uart1.c: 127:     U1BRGL = 0xC;
  1879   002F60  0E0C               	movlw	12
  1880   002F62  6FAE               	movwf	174,b	;volatile
  1881                           
  1882                           ;mcc_generated_files/uart/src/uart1.c: 129:     U1BRGH = 0x0;
  1883   002F64  0E00               	movlw	0
  1884   002F66  6FAF               	movwf	175,b	;volatile
  1885                           
  1886                           ;mcc_generated_files/uart/src/uart1.c: 131:     U1FIFO = 0x20;
  1887   002F68  0E20               	movlw	32
  1888   002F6A  6FB0               	movwf	176,b	;volatile
  1889                           
  1890                           ;mcc_generated_files/uart/src/uart1.c: 133:     U1UIR = 0x0;
  1891   002F6C  0E00               	movlw	0
  1892   002F6E  6FB1               	movwf	177,b	;volatile
  1893                           
  1894                           ;mcc_generated_files/uart/src/uart1.c: 135:     U1ERRIR = 0x80;
  1895   002F70  0E80               	movlw	128
  1896   002F72  6FB2               	movwf	178,b	;volatile
  1897                           
  1898                           ;mcc_generated_files/uart/src/uart1.c: 137:     U1ERRIE = 0x0;
  1899   002F74  0E00               	movlw	0
  1900   002F76  6FB3               	movwf	179,b	;volatile
  1901   002F78                     
  1902                           ; BSR set to: 2
  1903                           ;mcc_generated_files/uart/src/uart1.c: 139:     UART1_FramingErrorCallbackRegister(UART1
      +                          _DefaultFramingErrorCallback);
  1904   002F78  0E00               	movlw	0
  1905   002F7A  6E03               	movwf	UART1_FramingErrorCallbackRegister@callbackHandler^(0+1280),c
  1906   002F7C  0E00               	movlw	0
  1907   002F7E  6E04               	movwf	(UART1_FramingErrorCallbackRegister@callbackHandler+1)^(0+1280),c
  1908   002F80  0E00               	movlw	0
  1909   002F82  6E05               	movwf	(UART1_FramingErrorCallbackRegister@callbackHandler+2)^(0+1280),c
  1910   002F84  EC31  F01C         	call	_UART1_FramingErrorCallbackRegister	;wreg free
  1911   002F88                     
  1912                           ;mcc_generated_files/uart/src/uart1.c: 140:     UART1_OverrunErrorCallbackRegister(UART1
      +                          _DefaultOverrunErrorCallback);
  1913   002F88  0E00               	movlw	0
  1914   002F8A  6E03               	movwf	UART1_OverrunErrorCallbackRegister@callbackHandler^(0+1280),c
  1915   002F8C  0E00               	movlw	0
  1916   002F8E  6E04               	movwf	(UART1_OverrunErrorCallbackRegister@callbackHandler+1)^(0+1280),c
  1917   002F90  0E00               	movlw	0
  1918   002F92  6E05               	movwf	(UART1_OverrunErrorCallbackRegister@callbackHandler+2)^(0+1280),c
  1919   002F94  EC20  F01C         	call	_UART1_OverrunErrorCallbackRegister	;wreg free
  1920   002F98                     
  1921                           ;mcc_generated_files/uart/src/uart1.c: 141:     UART1_ParityErrorCallbackRegister(UART1_
      +                          DefaultParityErrorCallback);
  1922   002F98  0E00               	movlw	0
  1923   002F9A  6E03               	movwf	UART1_ParityErrorCallbackRegister@callbackHandler^(0+1280),c
  1924   002F9C  0E00               	movlw	0
  1925   002F9E  6E04               	movwf	(UART1_ParityErrorCallbackRegister@callbackHandler+1)^(0+1280),c
  1926   002FA0  0E00               	movlw	0
  1927   002FA2  6E05               	movwf	(UART1_ParityErrorCallbackRegister@callbackHandler+2)^(0+1280),c
  1928   002FA4  EC0F  F01C         	call	_UART1_ParityErrorCallbackRegister	;wreg free
  1929   002FA8                     
  1930                           ;mcc_generated_files/uart/src/uart1.c: 143:     uart1RxLastError.status = 0;
  1931   002FA8  0E00               	movlw	0
  1932   002FAA  0105               	movlb	5	; () banked
  1933   002FAC  6F7A               	movwf	(_uart1RxLastError+1)& (0+255),b	;volatile
  1934   002FAE  0E00               	movlw	0
  1935   002FB0  6F79               	movwf	_uart1RxLastError& (0+255),b	;volatile
  1936   002FB2                     
  1937                           ; BSR set to: 5
  1938   002FB2  0012               	return		;funcret
  1939   002FB4                     __end_of_UART1_Initialize:
  1940                           	callstack 0
  1941                           
  1942 ;; *************** function _UART1_ParityErrorCallbackRegister *****************
  1943 ;; Defined at:
  1944 ;;		line 328 in file "mcc_generated_files/uart/src/uart1.c"
  1945 ;; Parameters:    Size  Location     Type
  1946 ;;  callbackHand    3    2[COMRAM] PTR FTN()void 
  1947 ;;		 -> UART1_DefaultParityErrorCallback(1), 
  1948 ;; Auto vars:     Size  Location     Type
  1949 ;;		None
  1950 ;; Return value:  Size  Location     Type
  1951 ;;                  1    wreg      void 
  1952 ;; Registers used:
  1953 ;;		wreg, status,2, status,0
  1954 ;; Tracked objects:
  1955 ;;		On entry : 0/0
  1956 ;;		On exit  : 0/0
  1957 ;;		Unchanged: 0/0
  1958 ;; Data sizes:     COMRAM   BANK5   BANK6   BANK7   BANK8   BANK9  BANK10  BANK11  BANK12  BANK13  BANK14  BANK15  BANK1
      +6  BANK17  BANK18  BANK19  BANK20  BANK21  BANK22  BANK23  BANK24  BANK25  BANK26  BANK27  BANK28  BANK29  BANK30  BANK3
      +1  BANK32  BANK33  BANK34  BANK35  BANK36
  1959 ;;      Params:         3       0       0       0       0       0       0       0       0       0       0       0       
      +0       0       0       0       0       0       0       0       0       0       0       0       0       0       0       
      +0       0       0       0       0       0
  1960 ;;      Locals:         0       0       0       0       0       0       0       0       0       0       0       0       
      +0       0       0       0       0       0       0       0       0       0       0       0       0       0       0       
      +0       0       0       0       0       0
  1961 ;;      Temps:          0       0       0       0       0       0       0       0       0       0       0       0       
      +0       0       0       0       0       0       0       0       0       0       0       0       0       0       0       
      +0       0       0       0       0       0
  1962 ;;      Totals:         3       0       0       0       0       0       0       0       0       0       0       0       
      +0       0       0       0       0       0       0       0       0       0       0       0       0       0       0       
      +0       0       0       0       0       0
  1963 ;;Total ram usage:        3 bytes
  1964 ;; Hardware stack levels used: 1
  1965 ;; Hardware stack levels required when called: 3
  1966 ;; This function calls:
  1967 ;;		Nothing
  1968 ;; This function is called by:
  1969 ;;		_UART1_Initialize
  1970 ;; This function uses a non-reentrant model
  1971 ;;
  1972                           
  1973                           	psect	text8
  1974   00381E                     __ptext8:
  1975                           	callstack 0
  1976   00381E                     _UART1_ParityErrorCallbackRegister:
  1977                           	callstack 121
  1978   00381E                     
  1979                           ;mcc_generated_files/uart/src/uart1.c: 328: void UART1_ParityErrorCallbackRegister(void 
      +                          (* callbackHandler)(void));mcc_generated_files/uart/src/uart1.c: 329: {;mcc_generated_fi
      +                          les/uart/src/uart1.c: 330:     if(((void*)0) != callbackHandler)
  1980   00381E  5003               	movf	UART1_ParityErrorCallbackRegister@callbackHandler^(0+1280),w,c
  1981   003820  1004               	iorwf	(UART1_ParityErrorCallbackRegister@callbackHandler+1)^(0+1280),w,c
  1982   003822  1005               	iorwf	(UART1_ParityErrorCallbackRegister@callbackHandler+2)^(0+1280),w,c
  1983   003824  B4D8               	btfsc	status,2,c
  1984   003826  EF17  F01C         	goto	u1701
  1985   00382A  EF19  F01C         	goto	u1700
  1986   00382E                     u1701:
  1987   00382E  EF1F  F01C         	goto	l1382
  1988   003832                     u1700:
  1989   003832                     
  1990                           ;mcc_generated_files/uart/src/uart1.c: 331:     {;mcc_generated_files/uart/src/uart1.c: 
      +                          332:         UART1_ParityErrorHandler = callbackHandler;
  1991   003832  C503  F560         	movff	UART1_ParityErrorCallbackRegister@callbackHandler,_UART1_ParityErrorHandler
  1992   003836  C504  F561         	movff	UART1_ParityErrorCallbackRegister@callbackHandler+1,_UART1_ParityErrorHandler+1
  1993   00383A  C505  F562         	movff	UART1_ParityErrorCallbackRegister@callbackHandler+2,_UART1_ParityErrorHandler+2
  1994   00383E                     l1382:
  1995   00383E  0012               	return		;funcret
  1996   003840                     __end_of_UART1_ParityErrorCallbackRegister:
  1997                           	callstack 0
  1998                           
  1999 ;; *************** function _UART1_OverrunErrorCallbackRegister *****************
  2000 ;; Defined at:
  2001 ;;		line 320 in file "mcc_generated_files/uart/src/uart1.c"
  2002 ;; Parameters:    Size  Location     Type
  2003 ;;  callbackHand    3    2[COMRAM] PTR FTN()void 
  2004 ;;		 -> UART1_DefaultOverrunErrorCallback(1), 
  2005 ;; Auto vars:     Size  Location     Type
  2006 ;;		None
  2007 ;; Return value:  Size  Location     Type
  2008 ;;                  1    wreg      void 
  2009 ;; Registers used:
  2010 ;;		wreg, status,2, status,0
  2011 ;; Tracked objects:
  2012 ;;		On entry : 0/0
  2013 ;;		On exit  : 0/0
  2014 ;;		Unchanged: 0/0
  2015 ;; Data sizes:     COMRAM   BANK5   BANK6   BANK7   BANK8   BANK9  BANK10  BANK11  BANK12  BANK13  BANK14  BANK15  BANK1
      +6  BANK17  BANK18  BANK19  BANK20  BANK21  BANK22  BANK23  BANK24  BANK25  BANK26  BANK27  BANK28  BANK29  BANK30  BANK3
      +1  BANK32  BANK33  BANK34  BANK35  BANK36
  2016 ;;      Params:         3       0       0       0       0       0       0       0       0       0       0       0       
      +0       0       0       0       0       0       0       0       0       0       0       0       0       0       0       
      +0       0       0       0       0       0
  2017 ;;      Locals:         0       0       0       0       0       0       0       0       0       0       0       0       
      +0       0       0       0       0       0       0       0       0       0       0       0       0       0       0       
      +0       0       0       0       0       0
  2018 ;;      Temps:          0       0       0       0       0       0       0       0       0       0       0       0       
      +0       0       0       0       0       0       0       0       0       0       0       0       0       0       0       
      +0       0       0       0       0       0
  2019 ;;      Totals:         3       0       0       0       0       0       0       0       0       0       0       0       
      +0       0       0       0       0       0       0       0       0       0       0       0       0       0       0       
      +0       0       0       0       0       0
  2020 ;;Total ram usage:        3 bytes
  2021 ;; Hardware stack levels used: 1
  2022 ;; Hardware stack levels required when called: 3
  2023 ;; This function calls:
  2024 ;;		Nothing
  2025 ;; This function is called by:
  2026 ;;		_UART1_Initialize
  2027 ;; This function uses a non-reentrant model
  2028 ;;
  2029                           
  2030                           	psect	text9
  2031   003840                     __ptext9:
  2032                           	callstack 0
  2033   003840                     _UART1_OverrunErrorCallbackRegister:
  2034                           	callstack 121
  2035   003840                     
  2036                           ;mcc_generated_files/uart/src/uart1.c: 320: void UART1_OverrunErrorCallbackRegister(void
      +                           (* callbackHandler)(void));mcc_generated_files/uart/src/uart1.c: 321: {;mcc_generated_f
      +                          iles/uart/src/uart1.c: 322:     if(((void*)0) != callbackHandler)
  2037   003840  5003               	movf	UART1_OverrunErrorCallbackRegister@callbackHandler^(0+1280),w,c
  2038   003842  1004               	iorwf	(UART1_OverrunErrorCallbackRegister@callbackHandler+1)^(0+1280),w,c
  2039   003844  1005               	iorwf	(UART1_OverrunErrorCallbackRegister@callbackHandler+2)^(0+1280),w,c
  2040   003846  B4D8               	btfsc	status,2,c
  2041   003848  EF28  F01C         	goto	u1691
  2042   00384C  EF2A  F01C         	goto	u1690
  2043   003850                     u1691:
  2044   003850  EF30  F01C         	goto	l1378
  2045   003854                     u1690:
  2046   003854                     
  2047                           ;mcc_generated_files/uart/src/uart1.c: 323:     {;mcc_generated_files/uart/src/uart1.c: 
      +                          324:         UART1_OverrunErrorHandler = callbackHandler;
  2048   003854  C503  F563         	movff	UART1_OverrunErrorCallbackRegister@callbackHandler,_UART1_OverrunErrorHandler
  2049   003858  C504  F564         	movff	UART1_OverrunErrorCallbackRegister@callbackHandler+1,_UART1_OverrunErrorHandler+1
  2050   00385C  C505  F565         	movff	UART1_OverrunErrorCallbackRegister@callbackHandler+2,_UART1_OverrunErrorHandler+2
  2051   003860                     l1378:
  2052   003860  0012               	return		;funcret
  2053   003862                     __end_of_UART1_OverrunErrorCallbackRegister:
  2054                           	callstack 0
  2055                           
  2056 ;; *************** function _UART1_FramingErrorCallbackRegister *****************
  2057 ;; Defined at:
  2058 ;;		line 312 in file "mcc_generated_files/uart/src/uart1.c"
  2059 ;; Parameters:    Size  Location     Type
  2060 ;;  callbackHand    3    2[COMRAM] PTR FTN()void 
  2061 ;;		 -> UART1_DefaultFramingErrorCallback(1), 
  2062 ;; Auto vars:     Size  Location     Type
  2063 ;;		None
  2064 ;; Return value:  Size  Location     Type
  2065 ;;                  1    wreg      void 
  2066 ;; Registers used:
  2067 ;;		wreg, status,2, status,0
  2068 ;; Tracked objects:
  2069 ;;		On entry : 0/0
  2070 ;;		On exit  : 0/0
  2071 ;;		Unchanged: 0/0
  2072 ;; Data sizes:     COMRAM   BANK5   BANK6   BANK7   BANK8   BANK9  BANK10  BANK11  BANK12  BANK13  BANK14  BANK15  BANK1
      +6  BANK17  BANK18  BANK19  BANK20  BANK21  BANK22  BANK23  BANK24  BANK25  BANK26  BANK27  BANK28  BANK29  BANK30  BANK3
      +1  BANK32  BANK33  BANK34  BANK35  BANK36
  2073 ;;      Params:         3       0       0       0       0       0       0       0       0       0       0       0       
      +0       0       0       0       0       0       0       0       0       0       0       0       0       0       0       
      +0       0       0       0       0       0
  2074 ;;      Locals:         0       0       0       0       0       0       0       0       0       0       0       0       
      +0       0       0       0       0       0       0       0       0       0       0       0       0       0       0       
      +0       0       0       0       0       0
  2075 ;;      Temps:          0       0       0       0       0       0       0       0       0       0       0       0       
      +0       0       0       0       0       0       0       0       0       0       0       0       0       0       0       
      +0       0       0       0       0       0
  2076 ;;      Totals:         3       0       0       0       0       0       0       0       0       0       0       0       
      +0       0       0       0       0       0       0       0       0       0       0       0       0       0       0       
      +0       0       0       0       0       0
  2077 ;;Total ram usage:        3 bytes
  2078 ;; Hardware stack levels used: 1
  2079 ;; Hardware stack levels required when called: 3
  2080 ;; This function calls:
  2081 ;;		Nothing
  2082 ;; This function is called by:
  2083 ;;		_UART1_Initialize
  2084 ;; This function uses a non-reentrant model
  2085 ;;
  2086                           
  2087                           	psect	text10
  2088   003862                     __ptext10:
  2089                           	callstack 0
  2090   003862                     _UART1_FramingErrorCallbackRegister:
  2091                           	callstack 121
  2092   003862                     
  2093                           ;mcc_generated_files/uart/src/uart1.c: 312: void UART1_FramingErrorCallbackRegister(void
      +                           (* callbackHandler)(void));mcc_generated_files/uart/src/uart1.c: 313: {;mcc_generated_f
      +                          iles/uart/src/uart1.c: 314:     if(((void*)0) != callbackHandler)
  2094   003862  5003               	movf	UART1_FramingErrorCallbackRegister@callbackHandler^(0+1280),w,c
  2095   003864  1004               	iorwf	(UART1_FramingErrorCallbackRegister@callbackHandler+1)^(0+1280),w,c
  2096   003866  1005               	iorwf	(UART1_FramingErrorCallbackRegister@callbackHandler+2)^(0+1280),w,c
  2097   003868  B4D8               	btfsc	status,2,c
  2098   00386A  EF39  F01C         	goto	u1681
  2099   00386E  EF3B  F01C         	goto	u1680
  2100   003872                     u1681:
  2101   003872  EF41  F01C         	goto	l1374
  2102   003876                     u1680:
  2103   003876                     
  2104                           ;mcc_generated_files/uart/src/uart1.c: 315:     {;mcc_generated_files/uart/src/uart1.c: 
      +                          316:         UART1_FramingErrorHandler = callbackHandler;
  2105   003876  C503  F566         	movff	UART1_FramingErrorCallbackRegister@callbackHandler,_UART1_FramingErrorHandler
  2106   00387A  C504  F567         	movff	UART1_FramingErrorCallbackRegister@callbackHandler+1,_UART1_FramingErrorHandler+1
  2107   00387E  C505  F568         	movff	UART1_FramingErrorCallbackRegister@callbackHandler+2,_UART1_FramingErrorHandler+2
  2108   003882                     l1374:
  2109   003882  0012               	return		;funcret
  2110   003884                     __end_of_UART1_FramingErrorCallbackRegister:
  2111                           	callstack 0
  2112                           
  2113 ;; *************** function _TMR2_Initialize *****************
  2114 ;; Defined at:
  2115 ;;		line 57 in file "mcc_generated_files/timer/src/tmr2.c"
  2116 ;; Parameters:    Size  Location     Type
  2117 ;;		None
  2118 ;; Auto vars:     Size  Location     Type
  2119 ;;		None
  2120 ;; Return value:  Size  Location     Type
  2121 ;;                  1    wreg      void 
  2122 ;; Registers used:
  2123 ;;		wreg, status,2, status,0, cstack
  2124 ;; Tracked objects:
  2125 ;;		On entry : 0/0
  2126 ;;		On exit  : 0/0
  2127 ;;		Unchanged: 0/0
  2128 ;; Data sizes:     COMRAM   BANK5   BANK6   BANK7   BANK8   BANK9  BANK10  BANK11  BANK12  BANK13  BANK14  BANK15  BANK1
      +6  BANK17  BANK18  BANK19  BANK20  BANK21  BANK22  BANK23  BANK24  BANK25  BANK26  BANK27  BANK28  BANK29  BANK30  BANK3
      +1  BANK32  BANK33  BANK34  BANK35  BANK36
  2129 ;;      Params:         0       0       0       0       0       0       0       0       0       0       0       0       
      +0       0       0       0       0       0       0       0       0       0       0       0       0       0       0       
      +0       0       0       0       0       0
  2130 ;;      Locals:         0       0       0       0       0       0       0       0       0       0       0       0       
      +0       0       0       0       0       0       0       0       0       0       0       0       0       0       0       
      +0       0       0       0       0       0
  2131 ;;      Temps:          0       0       0       0       0       0       0       0       0       0       0       0       
      +0       0       0       0       0       0       0       0       0       0       0       0       0       0       0       
      +0       0       0       0       0       0
  2132 ;;      Totals:         0       0       0       0       0       0       0       0       0       0       0       0       
      +0       0       0       0       0       0       0       0       0       0       0       0       0       0       0       
      +0       0       0       0       0       0
  2133 ;;Total ram usage:        0 bytes
  2134 ;; Hardware stack levels used: 1
  2135 ;; Hardware stack levels required when called: 4
  2136 ;; This function calls:
  2137 ;;		_TMR2_OverflowCallbackRegister
  2138 ;; This function is called by:
  2139 ;;		_SYSTEM_Initialize
  2140 ;; This function uses a non-reentrant model
  2141 ;;
  2142                           
  2143                           	psect	text11
  2144   0036EE                     __ptext11:
  2145                           	callstack 0
  2146   0036EE                     _TMR2_Initialize:
  2147                           	callstack 121
  2148   0036EE                     
  2149                           ;mcc_generated_files/timer/src/tmr2.c: 61:     T2CLKCON = 0x1;
  2150   0036EE  0E01               	movlw	1
  2151   0036F0  0103               	movlb	3	; () banked
  2152   0036F2  6F26               	movwf	38,b	;volatile
  2153                           
  2154                           ;mcc_generated_files/timer/src/tmr2.c: 63:     T2HLT = 0x0;
  2155   0036F4  0E00               	movlw	0
  2156   0036F6  6F25               	movwf	37,b	;volatile
  2157                           
  2158                           ;mcc_generated_files/timer/src/tmr2.c: 65:     T2RST = 0x0;
  2159   0036F8  0E00               	movlw	0
  2160   0036FA  6F27               	movwf	39,b	;volatile
  2161   0036FC                     
  2162                           ; BSR set to: 3
  2163                           ;mcc_generated_files/timer/src/tmr2.c: 67:     T2PR = 0xFF;
  2164   0036FC  6923               	setf	35,b	;volatile
  2165                           
  2166                           ;mcc_generated_files/timer/src/tmr2.c: 69:     T2TMR = 0x0;
  2167   0036FE  0E00               	movlw	0
  2168   003700  6F22               	movwf	34,b	;volatile
  2169   003702                     
  2170                           ; BSR set to: 3
  2171                           ;mcc_generated_files/timer/src/tmr2.c: 72:     TMR2_OverflowCallbackRegister(TMR2_Defaul
      +                          tOverflowCallback);
  2172   003702  0EFA               	movlw	low _TMR2_DefaultOverflowCallback
  2173   003704  6E03               	movwf	TMR2_OverflowCallbackRegister@InterruptHandler^(0+1280),c
  2174   003706  0E39               	movlw	high _TMR2_DefaultOverflowCallback
  2175   003708  6E04               	movwf	(TMR2_OverflowCallbackRegister@InterruptHandler+1)^(0+1280),c
  2176   00370A  0E00               	movlw	low (_TMR2_DefaultOverflowCallback shr (0+16))
  2177   00370C  6E05               	movwf	(TMR2_OverflowCallbackRegister@InterruptHandler+2)^(0+1280),c
  2178   00370E  EC94  F01C         	call	_TMR2_OverflowCallbackRegister	;wreg free
  2179   003712                     
  2180                           ;mcc_generated_files/timer/src/tmr2.c: 75:      PIR3bits.TMR2IF = 0;
  2181   003712  96B1               	bcf	177,3,c	;volatile
  2182   003714                     
  2183                           ;mcc_generated_files/timer/src/tmr2.c: 77:     T2CON = 0x80;
  2184   003714  0E80               	movlw	128
  2185   003716  0103               	movlb	3	; () banked
  2186   003718  6F24               	movwf	36,b	;volatile
  2187   00371A                     
  2188                           ; BSR set to: 3
  2189   00371A  0012               	return		;funcret
  2190   00371C                     __end_of_TMR2_Initialize:
  2191                           	callstack 0
  2192                           
  2193 ;; *************** function _TMR2_OverflowCallbackRegister *****************
  2194 ;; Defined at:
  2195 ;;		line 122 in file "mcc_generated_files/timer/src/tmr2.c"
  2196 ;; Parameters:    Size  Location     Type
  2197 ;;  InterruptHan    3    2[COMRAM] PTR FTN()void 
  2198 ;;		 -> TMR2_DefaultOverflowCallback(1), TMR1_DefaultOverflowCallback(1), TMR0_DefaultOverflowCallback(1), LAB_ISR(1), 
  2199 ;; Auto vars:     Size  Location     Type
  2200 ;;		None
  2201 ;; Return value:  Size  Location     Type
  2202 ;;                  1    wreg      void 
  2203 ;; Registers used:
  2204 ;;		wreg, status,2, status,0
  2205 ;; Tracked objects:
  2206 ;;		On entry : 0/0
  2207 ;;		On exit  : 0/0
  2208 ;;		Unchanged: 0/0
  2209 ;; Data sizes:     COMRAM   BANK5   BANK6   BANK7   BANK8   BANK9  BANK10  BANK11  BANK12  BANK13  BANK14  BANK15  BANK1
      +6  BANK17  BANK18  BANK19  BANK20  BANK21  BANK22  BANK23  BANK24  BANK25  BANK26  BANK27  BANK28  BANK29  BANK30  BANK3
      +1  BANK32  BANK33  BANK34  BANK35  BANK36
  2210 ;;      Params:         3       0       0       0       0       0       0       0       0       0       0       0       
      +0       0       0       0       0       0       0       0       0       0       0       0       0       0       0       
      +0       0       0       0       0       0
  2211 ;;      Locals:         0       0       0       0       0       0       0       0       0       0       0       0       
      +0       0       0       0       0       0       0       0       0       0       0       0       0       0       0       
      +0       0       0       0       0       0
  2212 ;;      Temps:          0       0       0       0       0       0       0       0       0       0       0       0       
      +0       0       0       0       0       0       0       0       0       0       0       0       0       0       0       
      +0       0       0       0       0       0
  2213 ;;      Totals:         3       0       0       0       0       0       0       0       0       0       0       0       
      +0       0       0       0       0       0       0       0       0       0       0       0       0       0       0       
      +0       0       0       0       0       0
  2214 ;;Total ram usage:        3 bytes
  2215 ;; Hardware stack levels used: 1
  2216 ;; Hardware stack levels required when called: 3
  2217 ;; This function calls:
  2218 ;;		Nothing
  2219 ;; This function is called by:
  2220 ;;		_TMR2_Initialize
  2221 ;; This function uses a non-reentrant model
  2222 ;;
  2223                           
  2224                           	psect	text12
  2225   003928                     __ptext12:
  2226                           	callstack 0
  2227   003928                     _TMR2_OverflowCallbackRegister:
  2228                           	callstack 121
  2229   003928                     
  2230                           ;mcc_generated_files/timer/src/tmr2.c: 123:     TMR2_OverflowCallback = InterruptHandler
      +                          ;
  2231   003928  C503  F59B         	movff	TMR2_OverflowCallbackRegister@InterruptHandler,_TMR2_OverflowCallback
  2232   00392C  C504  F59C         	movff	TMR2_OverflowCallbackRegister@InterruptHandler+1,_TMR2_OverflowCallback+1
  2233   003930  C505  F59D         	movff	TMR2_OverflowCallbackRegister@InterruptHandler+2,_TMR2_OverflowCallback+2
  2234   003934  0012               	return		;funcret
  2235   003936                     __end_of_TMR2_OverflowCallbackRegister:
  2236                           	callstack 0
  2237                           
  2238 ;; *************** function _TMR1_Initialize *****************
  2239 ;; Defined at:
  2240 ;;		line 59 in file "mcc_generated_files/timer/src/tmr1.c"
  2241 ;; Parameters:    Size  Location     Type
  2242 ;;		None
  2243 ;; Auto vars:     Size  Location     Type
  2244 ;;		None
  2245 ;; Return value:  Size  Location     Type
  2246 ;;                  1    wreg      void 
  2247 ;; Registers used:
  2248 ;;		wreg, status,2, status,0, cstack
  2249 ;; Tracked objects:
  2250 ;;		On entry : 0/0
  2251 ;;		On exit  : 0/0
  2252 ;;		Unchanged: 0/0
  2253 ;; Data sizes:     COMRAM   BANK5   BANK6   BANK7   BANK8   BANK9  BANK10  BANK11  BANK12  BANK13  BANK14  BANK15  BANK1
      +6  BANK17  BANK18  BANK19  BANK20  BANK21  BANK22  BANK23  BANK24  BANK25  BANK26  BANK27  BANK28  BANK29  BANK30  BANK3
      +1  BANK32  BANK33  BANK34  BANK35  BANK36
  2254 ;;      Params:         0       0       0       0       0       0       0       0       0       0       0       0       
      +0       0       0       0       0       0       0       0       0       0       0       0       0       0       0       
      +0       0       0       0       0       0
  2255 ;;      Locals:         0       0       0       0       0       0       0       0       0       0       0       0       
      +0       0       0       0       0       0       0       0       0       0       0       0       0       0       0       
      +0       0       0       0       0       0
  2256 ;;      Temps:          2       0       0       0       0       0       0       0       0       0       0       0       
      +0       0       0       0       0       0       0       0       0       0       0       0       0       0       0       
      +0       0       0       0       0       0
  2257 ;;      Totals:         2       0       0       0       0       0       0       0       0       0       0       0       
      +0       0       0       0       0       0       0       0       0       0       0       0       0       0       0       
      +0       0       0       0       0       0
  2258 ;;Total ram usage:        2 bytes
  2259 ;; Hardware stack levels used: 1
  2260 ;; Hardware stack levels required when called: 4
  2261 ;; This function calls:
  2262 ;;		_TMR1_GateCallbackRegister
  2263 ;;		_TMR1_OverflowCallbackRegister
  2264 ;; This function is called by:
  2265 ;;		_SYSTEM_Initialize
  2266 ;; This function uses a non-reentrant model
  2267 ;;
  2268                           
  2269                           	psect	text13
  2270   00330E                     __ptext13:
  2271                           	callstack 0
  2272   00330E                     _TMR1_Initialize:
  2273                           	callstack 121
  2274   00330E                     
  2275                           ;mcc_generated_files/timer/src/tmr1.c: 62:     T1GCON = 0x0;
  2276   00330E  0E00               	movlw	0
  2277   003310  0103               	movlb	3	; () banked
  2278   003312  6F1F               	movwf	31,b	;volatile
  2279                           
  2280                           ;mcc_generated_files/timer/src/tmr1.c: 64:     T1GATE = 0x0;
  2281   003314  0E00               	movlw	0
  2282   003316  6F20               	movwf	32,b	;volatile
  2283                           
  2284                           ;mcc_generated_files/timer/src/tmr1.c: 66:     T1CLK = 0x1;
  2285   003318  0E01               	movlw	1
  2286   00331A  6F21               	movwf	33,b	;volatile
  2287                           
  2288                           ;mcc_generated_files/timer/src/tmr1.c: 68:     TMR1H = 0xB;
  2289   00331C  0E0B               	movlw	11
  2290   00331E  6F1D               	movwf	29,b	;volatile
  2291                           
  2292                           ;mcc_generated_files/timer/src/tmr1.c: 70:     TMR1L = 0xDB;
  2293   003320  0EDB               	movlw	219
  2294   003322  6F1C               	movwf	28,b	;volatile
  2295   003324                     
  2296                           ; BSR set to: 3
  2297                           ;mcc_generated_files/timer/src/tmr1.c: 73:     timer1ReloadVal=(uint16_t)((TMR1H << 8) |
      +                           TMR1L);
  2298   003324  511C               	movf	28,w,b	;volatile
  2299   003326  C31D F506          	movff	797,??_TMR1_Initialize	;volatile
  2300   00332A  6A07               	clrf	(??_TMR1_Initialize+1)^(0+1280),c
  2301   00332C  C506  F507         	movff	??_TMR1_Initialize,??_TMR1_Initialize+1
  2302   003330  6A06               	clrf	??_TMR1_Initialize^(0+1280),c
  2303   003332  1006               	iorwf	??_TMR1_Initialize^(0+1280),w,c
  2304   003334  6E4C               	movwf	_timer1ReloadVal^(0+1280),c	;volatile
  2305   003336  5007               	movf	(??_TMR1_Initialize+1)^(0+1280),w,c
  2306   003338  6E4D               	movwf	(_timer1ReloadVal+1)^(0+1280),c	;volatile
  2307   00333A                     
  2308                           ; BSR set to: 3
  2309                           ;mcc_generated_files/timer/src/tmr1.c: 76:     TMR1_OverflowCallbackRegister(TMR1_Defaul
      +                          tOverflowCallback);
  2310   00333A  0EF6               	movlw	low _TMR1_DefaultOverflowCallback
  2311   00333C  6E03               	movwf	TMR1_OverflowCallbackRegister@CallbackHandler^(0+1280),c
  2312   00333E  0E39               	movlw	high _TMR1_DefaultOverflowCallback
  2313   003340  6E04               	movwf	(TMR1_OverflowCallbackRegister@CallbackHandler+1)^(0+1280),c
  2314   003342  0E00               	movlw	low (_TMR1_DefaultOverflowCallback shr (0+16))
  2315   003344  6E05               	movwf	(TMR1_OverflowCallbackRegister@CallbackHandler+2)^(0+1280),c
  2316   003346  EC9B  F01C         	call	_TMR1_OverflowCallbackRegister	;wreg free
  2317   00334A                     
  2318                           ;mcc_generated_files/timer/src/tmr1.c: 79:     TMR1_GateCallbackRegister(TMR1_DefaultGat
      +                          eCallback);
  2319   00334A  0E00               	movlw	0
  2320   00334C  6E03               	movwf	TMR1_GateCallbackRegister@CallbackHandler^(0+1280),c
  2321   00334E  0E00               	movlw	0
  2322   003350  6E04               	movwf	(TMR1_GateCallbackRegister@CallbackHandler+1)^(0+1280),c
  2323   003352  0E00               	movlw	0
  2324   003354  6E05               	movwf	(TMR1_GateCallbackRegister@CallbackHandler+2)^(0+1280),c
  2325   003356  ECA2  F01C         	call	_TMR1_GateCallbackRegister	;wreg free
  2326   00335A                     
  2327                           ;mcc_generated_files/timer/src/tmr1.c: 82:     PIR3bits.TMR1IF = 0;
  2328   00335A  98B1               	bcf	177,4,c	;volatile
  2329   00335C                     
  2330                           ;mcc_generated_files/timer/src/tmr1.c: 83:     PIR3bits.TMR1GIF = 0;
  2331   00335C  9AB1               	bcf	177,5,c	;volatile
  2332   00335E                     
  2333                           ;mcc_generated_files/timer/src/tmr1.c: 86:     T1CON = 0x0;
  2334   00335E  0E00               	movlw	0
  2335   003360  0103               	movlb	3	; () banked
  2336   003362  6F1E               	movwf	30,b	;volatile
  2337   003364                     
  2338                           ; BSR set to: 3
  2339   003364  0012               	return		;funcret
  2340   003366                     __end_of_TMR1_Initialize:
  2341                           	callstack 0
  2342                           
  2343 ;; *************** function _TMR1_OverflowCallbackRegister *****************
  2344 ;; Defined at:
  2345 ;;		line 158 in file "mcc_generated_files/timer/src/tmr1.c"
  2346 ;; Parameters:    Size  Location     Type
  2347 ;;  CallbackHand    3    2[COMRAM] PTR FTN()void 
  2348 ;;		 -> TMR2_DefaultOverflowCallback(1), TMR1_DefaultOverflowCallback(1), TMR0_DefaultOverflowCallback(1), LAB_ISR(1), 
  2349 ;; Auto vars:     Size  Location     Type
  2350 ;;		None
  2351 ;; Return value:  Size  Location     Type
  2352 ;;                  1    wreg      void 
  2353 ;; Registers used:
  2354 ;;		wreg, status,2, status,0
  2355 ;; Tracked objects:
  2356 ;;		On entry : 0/0
  2357 ;;		On exit  : 0/0
  2358 ;;		Unchanged: 0/0
  2359 ;; Data sizes:     COMRAM   BANK5   BANK6   BANK7   BANK8   BANK9  BANK10  BANK11  BANK12  BANK13  BANK14  BANK15  BANK1
      +6  BANK17  BANK18  BANK19  BANK20  BANK21  BANK22  BANK23  BANK24  BANK25  BANK26  BANK27  BANK28  BANK29  BANK30  BANK3
      +1  BANK32  BANK33  BANK34  BANK35  BANK36
  2360 ;;      Params:         3       0       0       0       0       0       0       0       0       0       0       0       
      +0       0       0       0       0       0       0       0       0       0       0       0       0       0       0       
      +0       0       0       0       0       0
  2361 ;;      Locals:         0       0       0       0       0       0       0       0       0       0       0       0       
      +0       0       0       0       0       0       0       0       0       0       0       0       0       0       0       
      +0       0       0       0       0       0
  2362 ;;      Temps:          0       0       0       0       0       0       0       0       0       0       0       0       
      +0       0       0       0       0       0       0       0       0       0       0       0       0       0       0       
      +0       0       0       0       0       0
  2363 ;;      Totals:         3       0       0       0       0       0       0       0       0       0       0       0       
      +0       0       0       0       0       0       0       0       0       0       0       0       0       0       0       
      +0       0       0       0       0       0
  2364 ;;Total ram usage:        3 bytes
  2365 ;; Hardware stack levels used: 1
  2366 ;; Hardware stack levels required when called: 3
  2367 ;; This function calls:
  2368 ;;		Nothing
  2369 ;; This function is called by:
  2370 ;;		_TMR1_Initialize
  2371 ;; This function uses a non-reentrant model
  2372 ;;
  2373                           
  2374                           	psect	text14
  2375   003936                     __ptext14:
  2376                           	callstack 0
  2377   003936                     _TMR1_OverflowCallbackRegister:
  2378                           	callstack 121
  2379   003936                     
  2380                           ;mcc_generated_files/timer/src/tmr1.c: 158: void TMR1_OverflowCallbackRegister(void (* C
      +                          allbackHandler)(void));mcc_generated_files/timer/src/tmr1.c: 159: {;mcc_generated_files/
      +                          timer/src/tmr1.c: 160:     TMR1_OverflowCallback = CallbackHandler;
  2381   003936  C503  F5A1         	movff	TMR1_OverflowCallbackRegister@CallbackHandler,_TMR1_OverflowCallback
  2382   00393A  C504  F5A2         	movff	TMR1_OverflowCallbackRegister@CallbackHandler+1,_TMR1_OverflowCallback+1
  2383   00393E  C505  F5A3         	movff	TMR1_OverflowCallbackRegister@CallbackHandler+2,_TMR1_OverflowCallback+2
  2384   003942  0012               	return		;funcret
  2385   003944                     __end_of_TMR1_OverflowCallbackRegister:
  2386                           	callstack 0
  2387                           
  2388 ;; *************** function _TMR1_GateCallbackRegister *****************
  2389 ;; Defined at:
  2390 ;;		line 184 in file "mcc_generated_files/timer/src/tmr1.c"
  2391 ;; Parameters:    Size  Location     Type
  2392 ;;  CallbackHand    3    2[COMRAM] PTR FTN()void 
  2393 ;;		 -> TMR1_DefaultGateCallback(1), 
  2394 ;; Auto vars:     Size  Location     Type
  2395 ;;		None
  2396 ;; Return value:  Size  Location     Type
  2397 ;;                  1    wreg      void 
  2398 ;; Registers used:
  2399 ;;		wreg, status,2, status,0
  2400 ;; Tracked objects:
  2401 ;;		On entry : 0/0
  2402 ;;		On exit  : 0/0
  2403 ;;		Unchanged: 0/0
  2404 ;; Data sizes:     COMRAM   BANK5   BANK6   BANK7   BANK8   BANK9  BANK10  BANK11  BANK12  BANK13  BANK14  BANK15  BANK1
      +6  BANK17  BANK18  BANK19  BANK20  BANK21  BANK22  BANK23  BANK24  BANK25  BANK26  BANK27  BANK28  BANK29  BANK30  BANK3
      +1  BANK32  BANK33  BANK34  BANK35  BANK36
  2405 ;;      Params:         3       0       0       0       0       0       0       0       0       0       0       0       
      +0       0       0       0       0       0       0       0       0       0       0       0       0       0       0       
      +0       0       0       0       0       0
  2406 ;;      Locals:         0       0       0       0       0       0       0       0       0       0       0       0       
      +0       0       0       0       0       0       0       0       0       0       0       0       0       0       0       
      +0       0       0       0       0       0
  2407 ;;      Temps:          0       0       0       0       0       0       0       0       0       0       0       0       
      +0       0       0       0       0       0       0       0       0       0       0       0       0       0       0       
      +0       0       0       0       0       0
  2408 ;;      Totals:         3       0       0       0       0       0       0       0       0       0       0       0       
      +0       0       0       0       0       0       0       0       0       0       0       0       0       0       0       
      +0       0       0       0       0       0
  2409 ;;Total ram usage:        3 bytes
  2410 ;; Hardware stack levels used: 1
  2411 ;; Hardware stack levels required when called: 3
  2412 ;; This function calls:
  2413 ;;		Nothing
  2414 ;; This function is called by:
  2415 ;;		_TMR1_Initialize
  2416 ;; This function uses a non-reentrant model
  2417 ;;
  2418                           
  2419                           	psect	text15
  2420   003944                     __ptext15:
  2421                           	callstack 0
  2422   003944                     _TMR1_GateCallbackRegister:
  2423                           	callstack 121
  2424   003944                     
  2425                           ;mcc_generated_files/timer/src/tmr1.c: 184: void TMR1_GateCallbackRegister(void (* Callb
      +                          ackHandler)(void));mcc_generated_files/timer/src/tmr1.c: 185: {;mcc_generated_files/time
      +                          r/src/tmr1.c: 186:     TMR1_GateCallback = CallbackHandler;
  2426   003944  C503  F59E         	movff	TMR1_GateCallbackRegister@CallbackHandler,_TMR1_GateCallback
  2427   003948  C504  F59F         	movff	TMR1_GateCallbackRegister@CallbackHandler+1,_TMR1_GateCallback+1
  2428   00394C  C505  F5A0         	movff	TMR1_GateCallbackRegister@CallbackHandler+2,_TMR1_GateCallback+2
  2429   003950  0012               	return		;funcret
  2430   003952                     __end_of_TMR1_GateCallbackRegister:
  2431                           	callstack 0
  2432                           
  2433 ;; *************** function _TMR0_Initialize *****************
  2434 ;; Defined at:
  2435 ;;		line 49 in file "mcc_generated_files/timer/src/tmr0.c"
  2436 ;; Parameters:    Size  Location     Type
  2437 ;;		None
  2438 ;; Auto vars:     Size  Location     Type
  2439 ;;		None
  2440 ;; Return value:  Size  Location     Type
  2441 ;;                  1    wreg      void 
  2442 ;; Registers used:
  2443 ;;		wreg, status,2, status,0, cstack
  2444 ;; Tracked objects:
  2445 ;;		On entry : 0/0
  2446 ;;		On exit  : 0/0
  2447 ;;		Unchanged: 0/0
  2448 ;; Data sizes:     COMRAM   BANK5   BANK6   BANK7   BANK8   BANK9  BANK10  BANK11  BANK12  BANK13  BANK14  BANK15  BANK1
      +6  BANK17  BANK18  BANK19  BANK20  BANK21  BANK22  BANK23  BANK24  BANK25  BANK26  BANK27  BANK28  BANK29  BANK30  BANK3
      +1  BANK32  BANK33  BANK34  BANK35  BANK36
  2449 ;;      Params:         0       0       0       0       0       0       0       0       0       0       0       0       
      +0       0       0       0       0       0       0       0       0       0       0       0       0       0       0       
      +0       0       0       0       0       0
  2450 ;;      Locals:         0       0       0       0       0       0       0       0       0       0       0       0       
      +0       0       0       0       0       0       0       0       0       0       0       0       0       0       0       
      +0       0       0       0       0       0
  2451 ;;      Temps:          0       0       0       0       0       0       0       0       0       0       0       0       
      +0       0       0       0       0       0       0       0       0       0       0       0       0       0       0       
      +0       0       0       0       0       0
  2452 ;;      Totals:         0       0       0       0       0       0       0       0       0       0       0       0       
      +0       0       0       0       0       0       0       0       0       0       0       0       0       0       0       
      +0       0       0       0       0       0
  2453 ;;Total ram usage:        0 bytes
  2454 ;; Hardware stack levels used: 1
  2455 ;; Hardware stack levels required when called: 4
  2456 ;; This function calls:
  2457 ;;		_TMR0_OverflowCallbackRegister
  2458 ;; This function is called by:
  2459 ;;		_SYSTEM_Initialize
  2460 ;; This function uses a non-reentrant model
  2461 ;;
  2462                           
  2463                           	psect	text16
  2464   0037A4                     __ptext16:
  2465                           	callstack 0
  2466   0037A4                     _TMR0_Initialize:
  2467                           	callstack 121
  2468   0037A4                     
  2469                           ;mcc_generated_files/timer/src/tmr0.c: 52:     TMR0H = 0xF3;
  2470   0037A4  0EF3               	movlw	243
  2471   0037A6  0103               	movlb	3	; () banked
  2472   0037A8  6F19               	movwf	25,b	;volatile
  2473                           
  2474                           ;mcc_generated_files/timer/src/tmr0.c: 55:     TMR0L = 0x0;
  2475   0037AA  0E00               	movlw	0
  2476   0037AC  6F18               	movwf	24,b	;volatile
  2477                           
  2478                           ;mcc_generated_files/timer/src/tmr0.c: 58:     T0CON1 = 0x48;
  2479   0037AE  0E48               	movlw	72
  2480   0037B0  6F1B               	movwf	27,b	;volatile
  2481   0037B2                     
  2482                           ; BSR set to: 3
  2483                           ;mcc_generated_files/timer/src/tmr0.c: 62:     TMR0_OverflowCallbackRegister(TMR0_Defaul
      +                          tOverflowCallback);
  2484   0037B2  0EF8               	movlw	low _TMR0_DefaultOverflowCallback
  2485   0037B4  6E03               	movwf	TMR0_OverflowCallbackRegister@CallbackHandler^(0+1280),c
  2486   0037B6  0E39               	movlw	high _TMR0_DefaultOverflowCallback
  2487   0037B8  6E04               	movwf	(TMR0_OverflowCallbackRegister@CallbackHandler+1)^(0+1280),c
  2488   0037BA  0E00               	movlw	low (_TMR0_DefaultOverflowCallback shr (0+16))
  2489   0037BC  6E05               	movwf	(TMR0_OverflowCallbackRegister@CallbackHandler+2)^(0+1280),c
  2490   0037BE  ECD3  F01C         	call	_TMR0_OverflowCallbackRegister	;wreg free
  2491   0037C2                     
  2492                           ;mcc_generated_files/timer/src/tmr0.c: 65:     PIR3bits.TMR0IF = 0;
  2493   0037C2  9EB1               	bcf	177,7,c	;volatile
  2494   0037C4                     
  2495                           ;mcc_generated_files/timer/src/tmr0.c: 68:     PIE3bits.TMR0IE = 1;
  2496   0037C4  8EA1               	bsf	161,7,c	;volatile
  2497   0037C6                     
  2498                           ;mcc_generated_files/timer/src/tmr0.c: 71:     T0CON0 = 0x80;
  2499   0037C6  0E80               	movlw	128
  2500   0037C8  0103               	movlb	3	; () banked
  2501   0037CA  6F1A               	movwf	26,b	;volatile
  2502   0037CC                     
  2503                           ; BSR set to: 3
  2504   0037CC  0012               	return		;funcret
  2505   0037CE                     __end_of_TMR0_Initialize:
  2506                           	callstack 0
  2507                           
  2508 ;; *************** function _PWM3_16BIT_Initialize *****************
  2509 ;; Defined at:
  2510 ;;		line 50 in file "mcc_generated_files/pwm/src/pwm3_16bit.c"
  2511 ;; Parameters:    Size  Location     Type
  2512 ;;		None
  2513 ;; Auto vars:     Size  Location     Type
  2514 ;;		None
  2515 ;; Return value:  Size  Location     Type
  2516 ;;                  1    wreg      void 
  2517 ;; Registers used:
  2518 ;;		wreg, status,2, status,0, cstack
  2519 ;; Tracked objects:
  2520 ;;		On entry : 0/0
  2521 ;;		On exit  : 0/0
  2522 ;;		Unchanged: 0/0
  2523 ;; Data sizes:     COMRAM   BANK5   BANK6   BANK7   BANK8   BANK9  BANK10  BANK11  BANK12  BANK13  BANK14  BANK15  BANK1
      +6  BANK17  BANK18  BANK19  BANK20  BANK21  BANK22  BANK23  BANK24  BANK25  BANK26  BANK27  BANK28  BANK29  BANK30  BANK3
      +1  BANK32  BANK33  BANK34  BANK35  BANK36
  2524 ;;      Params:         0       0       0       0       0       0       0       0       0       0       0       0       
      +0       0       0       0       0       0       0       0       0       0       0       0       0       0       0       
      +0       0       0       0       0       0
  2525 ;;      Locals:         0       0       0       0       0       0       0       0       0       0       0       0       
      +0       0       0       0       0       0       0       0       0       0       0       0       0       0       0       
      +0       0       0       0       0       0
  2526 ;;      Temps:          0       0       0       0       0       0       0       0       0       0       0       0       
      +0       0       0       0       0       0       0       0       0       0       0       0       0       0       0       
      +0       0       0       0       0       0
  2527 ;;      Totals:         0       0       0       0       0       0       0       0       0       0       0       0       
      +0       0       0       0       0       0       0       0       0       0       0       0       0       0       0       
      +0       0       0       0       0       0
  2528 ;;Total ram usage:        0 bytes
  2529 ;; Hardware stack levels used: 1
  2530 ;; Hardware stack levels required when called: 4
  2531 ;; This function calls:
  2532 ;;		_PWM3_16BIT_Period_SetInterruptHandler
  2533 ;;		_PWM3_16BIT_Slice1Output1_SetInterruptHandler
  2534 ;;		_PWM3_16BIT_Slice1Output2_SetInterruptHandler
  2535 ;; This function is called by:
  2536 ;;		_SYSTEM_Initialize
  2537 ;; This function uses a non-reentrant model
  2538 ;;
  2539                           
  2540                           	psect	text17
  2541   003148                     __ptext17:
  2542                           	callstack 0
  2543   003148                     _PWM3_16BIT_Initialize:
  2544                           	callstack 121
  2545   003148                     
  2546                           ;mcc_generated_files/pwm/src/pwm3_16bit.c: 53:      PWM3ERS = 0x0;
  2547   003148  0E00               	movlw	0
  2548   00314A  6E7E               	movwf	126,c	;volatile
  2549                           
  2550                           ;mcc_generated_files/pwm/src/pwm3_16bit.c: 56:      PWM3CLK = 0x3;
  2551   00314C  0E03               	movlw	3
  2552   00314E  6E7F               	movwf	127,c	;volatile
  2553                           
  2554                           ;mcc_generated_files/pwm/src/pwm3_16bit.c: 59:      PWM3LDS = 0x0;
  2555   003150  0E00               	movlw	0
  2556   003152  6E80               	movwf	128,c	;volatile
  2557                           
  2558                           ;mcc_generated_files/pwm/src/pwm3_16bit.c: 62:      PWM3PRL = 0x0;
  2559   003154  0E00               	movlw	0
  2560   003156  6E81               	movwf	129,c	;volatile
  2561                           
  2562                           ;mcc_generated_files/pwm/src/pwm3_16bit.c: 65:      PWM3PRH = 0x10;
  2563   003158  0E10               	movlw	16
  2564   00315A  6E82               	movwf	130,c	;volatile
  2565                           
  2566                           ;mcc_generated_files/pwm/src/pwm3_16bit.c: 68:      PWM3CPRE = 0x9;
  2567   00315C  0E09               	movlw	9
  2568   00315E  6E83               	movwf	131,c	;volatile
  2569                           
  2570                           ;mcc_generated_files/pwm/src/pwm3_16bit.c: 71:      PWM3PIPOS = 0x0;
  2571   003160  0E00               	movlw	0
  2572   003162  6E84               	movwf	132,c	;volatile
  2573                           
  2574                           ;mcc_generated_files/pwm/src/pwm3_16bit.c: 74:      PWM3GIR = 0x0;
  2575   003164  0E00               	movlw	0
  2576   003166  6E85               	movwf	133,c	;volatile
  2577                           
  2578                           ;mcc_generated_files/pwm/src/pwm3_16bit.c: 77:      PWM3GIE = 0x0;
  2579   003168  0E00               	movlw	0
  2580   00316A  6E86               	movwf	134,c	;volatile
  2581                           
  2582                           ;mcc_generated_files/pwm/src/pwm3_16bit.c: 80:      PWM3S1CFG = 0x0;
  2583   00316C  0E00               	movlw	0
  2584   00316E  6E88               	movwf	136,c	;volatile
  2585                           
  2586                           ;mcc_generated_files/pwm/src/pwm3_16bit.c: 83:      PWM3S1P1L = 0xCD;
  2587   003170  0ECD               	movlw	205
  2588   003172  6E89               	movwf	137,c	;volatile
  2589                           
  2590                           ;mcc_generated_files/pwm/src/pwm3_16bit.c: 86:     PWM3S1P1H = 0xC;
  2591   003174  0E0C               	movlw	12
  2592   003176  6E8A               	movwf	138,c	;volatile
  2593                           
  2594                           ;mcc_generated_files/pwm/src/pwm3_16bit.c: 89:      PWM3S1P2L = 0x0;
  2595   003178  0E00               	movlw	0
  2596   00317A  6E8B               	movwf	139,c	;volatile
  2597                           
  2598                           ;mcc_generated_files/pwm/src/pwm3_16bit.c: 92:     PWM3S1P2H = 0x8;
  2599   00317C  0E08               	movlw	8
  2600   00317E  6E8C               	movwf	140,c	;volatile
  2601   003180                     
  2602                           ;mcc_generated_files/pwm/src/pwm3_16bit.c: 95:     PIR7bits.PWM3PIF = 0;
  2603   003180  9CB5               	bcf	181,6,c	;volatile
  2604   003182                     
  2605                           ;mcc_generated_files/pwm/src/pwm3_16bit.c: 98:     PIR7bits.PWM3IF = 0;
  2606   003182  9EB5               	bcf	181,7,c	;volatile
  2607   003184                     
  2608                           ;mcc_generated_files/pwm/src/pwm3_16bit.c: 101:     PWM3GIRbits.S1P1IF = 0;
  2609   003184  9085               	bcf	133,0,c	;volatile
  2610   003186                     
  2611                           ;mcc_generated_files/pwm/src/pwm3_16bit.c: 104:     PWM3GIRbits.S1P2IF = 0;
  2612   003186  9285               	bcf	133,1,c	;volatile
  2613   003188                     
  2614                           ;mcc_generated_files/pwm/src/pwm3_16bit.c: 107:     PIE7bits.PWM3IE = 0;
  2615   003188  9EA5               	bcf	165,7,c	;volatile
  2616   00318A                     
  2617                           ;mcc_generated_files/pwm/src/pwm3_16bit.c: 110:     PIE7bits.PWM3PIE = 0;
  2618   00318A  9CA5               	bcf	165,6,c	;volatile
  2619   00318C                     
  2620                           ;mcc_generated_files/pwm/src/pwm3_16bit.c: 113:     PWM3_16BIT_Slice1Output1_SetInterrup
      +                          tHandler(PWM3_16BIT_Slice1Output1_DefaultInterruptHandler);
  2621   00318C  0E00               	movlw	0
  2622   00318E  6E03               	movwf	PWM3_16BIT_Slice1Output1_SetInterruptHandler@InterruptHandler^(0+1280),c
  2623   003190  0E00               	movlw	0
  2624   003192  6E04               	movwf	(PWM3_16BIT_Slice1Output1_SetInterruptHandler@InterruptHandler+1)^(0+1280),c
  2625   003194  0E00               	movlw	0
  2626   003196  6E05               	movwf	(PWM3_16BIT_Slice1Output1_SetInterruptHandler@InterruptHandler+2)^(0+1280),c
  2627   003198  ECB0  F01C         	call	_PWM3_16BIT_Slice1Output1_SetInterruptHandler	;wreg free
  2628   00319C                     
  2629                           ;mcc_generated_files/pwm/src/pwm3_16bit.c: 114:     PWM3_16BIT_Slice1Output2_SetInterrup
      +                          tHandler(PWM3_16BIT_Slice1Output2_DefaultInterruptHandler);
  2630   00319C  0E00               	movlw	0
  2631   00319E  6E03               	movwf	PWM3_16BIT_Slice1Output2_SetInterruptHandler@InterruptHandler^(0+1280),c
  2632   0031A0  0E00               	movlw	0
  2633   0031A2  6E04               	movwf	(PWM3_16BIT_Slice1Output2_SetInterruptHandler@InterruptHandler+1)^(0+1280),c
  2634   0031A4  0E00               	movlw	0
  2635   0031A6  6E05               	movwf	(PWM3_16BIT_Slice1Output2_SetInterruptHandler@InterruptHandler+2)^(0+1280),c
  2636   0031A8  ECA9  F01C         	call	_PWM3_16BIT_Slice1Output2_SetInterruptHandler	;wreg free
  2637   0031AC                     
  2638                           ;mcc_generated_files/pwm/src/pwm3_16bit.c: 115:     PWM3_16BIT_Period_SetInterruptHandle
      +                          r(PWM3_16BIT_Period_DefaultInterruptHandler);
  2639   0031AC  0E00               	movlw	0
  2640   0031AE  6E03               	movwf	PWM3_16BIT_Period_SetInterruptHandler@InterruptHandler^(0+1280),c
  2641   0031B0  0E00               	movlw	0
  2642   0031B2  6E04               	movwf	(PWM3_16BIT_Period_SetInterruptHandler@InterruptHandler+1)^(0+1280),c
  2643   0031B4  0E00               	movlw	0
  2644   0031B6  6E05               	movwf	(PWM3_16BIT_Period_SetInterruptHandler@InterruptHandler+2)^(0+1280),c
  2645   0031B8  ECB7  F01C         	call	_PWM3_16BIT_Period_SetInterruptHandler	;wreg free
  2646   0031BC                     
  2647                           ;mcc_generated_files/pwm/src/pwm3_16bit.c: 118:      PWM3CON = 0x80;
  2648   0031BC  0E80               	movlw	128
  2649   0031BE  6E87               	movwf	135,c	;volatile
  2650   0031C0  0012               	return		;funcret
  2651   0031C2                     __end_of_PWM3_16BIT_Initialize:
  2652                           	callstack 0
  2653                           
  2654 ;; *************** function _PWM3_16BIT_Slice1Output2_SetInterruptHandler *****************
  2655 ;; Defined at:
  2656 ;;		line 184 in file "mcc_generated_files/pwm/src/pwm3_16bit.c"
  2657 ;; Parameters:    Size  Location     Type
  2658 ;;  InterruptHan    3    2[COMRAM] PTR FTN()void 
  2659 ;;		 -> PWM3_16BIT_Slice1Output2_DefaultInterruptHandler(1), 
  2660 ;; Auto vars:     Size  Location     Type
  2661 ;;		None
  2662 ;; Return value:  Size  Location     Type
  2663 ;;                  1    wreg      void 
  2664 ;; Registers used:
  2665 ;;		wreg, status,2, status,0
  2666 ;; Tracked objects:
  2667 ;;		On entry : 0/0
  2668 ;;		On exit  : 0/0
  2669 ;;		Unchanged: 0/0
  2670 ;; Data sizes:     COMRAM   BANK5   BANK6   BANK7   BANK8   BANK9  BANK10  BANK11  BANK12  BANK13  BANK14  BANK15  BANK1
      +6  BANK17  BANK18  BANK19  BANK20  BANK21  BANK22  BANK23  BANK24  BANK25  BANK26  BANK27  BANK28  BANK29  BANK30  BANK3
      +1  BANK32  BANK33  BANK34  BANK35  BANK36
  2671 ;;      Params:         3       0       0       0       0       0       0       0       0       0       0       0       
      +0       0       0       0       0       0       0       0       0       0       0       0       0       0       0       
      +0       0       0       0       0       0
  2672 ;;      Locals:         0       0       0       0       0       0       0       0       0       0       0       0       
      +0       0       0       0       0       0       0       0       0       0       0       0       0       0       0       
      +0       0       0       0       0       0
  2673 ;;      Temps:          0       0       0       0       0       0       0       0       0       0       0       0       
      +0       0       0       0       0       0       0       0       0       0       0       0       0       0       0       
      +0       0       0       0       0       0
  2674 ;;      Totals:         3       0       0       0       0       0       0       0       0       0       0       0       
      +0       0       0       0       0       0       0       0       0       0       0       0       0       0       0       
      +0       0       0       0       0       0
  2675 ;;Total ram usage:        3 bytes
  2676 ;; Hardware stack levels used: 1
  2677 ;; Hardware stack levels required when called: 3
  2678 ;; This function calls:
  2679 ;;		Nothing
  2680 ;; This function is called by:
  2681 ;;		_PWM3_16BIT_Initialize
  2682 ;; This function uses a non-reentrant model
  2683 ;;
  2684                           
  2685                           	psect	text18
  2686   003952                     __ptext18:
  2687                           	callstack 0
  2688   003952                     _PWM3_16BIT_Slice1Output2_SetInterruptHandler:
  2689                           	callstack 121
  2690   003952                     
  2691                           ;mcc_generated_files/pwm/src/pwm3_16bit.c: 184: void PWM3_16BIT_Slice1Output2_SetInterru
      +                          ptHandler(void (* InterruptHandler)(void));mcc_generated_files/pwm/src/pwm3_16bit.c: 185
      +                          : {;mcc_generated_files/pwm/src/pwm3_16bit.c: 186:     PWM3_16BIT_Slice1Output2_Interrup
      +                          tHandler = InterruptHandler;
  2692   003952  C503  F5AA         	movff	PWM3_16BIT_Slice1Output2_SetInterruptHandler@InterruptHandler,_PWM3_16BIT_Slice1O
      +                          utput2_InterruptHandler
  2693   003956  C504  F5AB         	movff	PWM3_16BIT_Slice1Output2_SetInterruptHandler@InterruptHandler+1,_PWM3_16BIT_Slice
      +                          1Output2_InterruptHandler+1
  2694   00395A  C505  F5AC         	movff	PWM3_16BIT_Slice1Output2_SetInterruptHandler@InterruptHandler+2,_PWM3_16BIT_Slice
      +                          1Output2_InterruptHandler+2
  2695   00395E  0012               	return		;funcret
  2696   003960                     __end_of_PWM3_16BIT_Slice1Output2_SetInterruptHandler:
  2697                           	callstack 0
  2698                           
  2699 ;; *************** function _PWM3_16BIT_Slice1Output1_SetInterruptHandler *****************
  2700 ;; Defined at:
  2701 ;;		line 179 in file "mcc_generated_files/pwm/src/pwm3_16bit.c"
  2702 ;; Parameters:    Size  Location     Type
  2703 ;;  InterruptHan    3    2[COMRAM] PTR FTN()void 
  2704 ;;		 -> PWM3_16BIT_Slice1Output1_DefaultInterruptHandler(1), 
  2705 ;; Auto vars:     Size  Location     Type
  2706 ;;		None
  2707 ;; Return value:  Size  Location     Type
  2708 ;;                  1    wreg      void 
  2709 ;; Registers used:
  2710 ;;		wreg, status,2, status,0
  2711 ;; Tracked objects:
  2712 ;;		On entry : 0/0
  2713 ;;		On exit  : 0/0
  2714 ;;		Unchanged: 0/0
  2715 ;; Data sizes:     COMRAM   BANK5   BANK6   BANK7   BANK8   BANK9  BANK10  BANK11  BANK12  BANK13  BANK14  BANK15  BANK1
      +6  BANK17  BANK18  BANK19  BANK20  BANK21  BANK22  BANK23  BANK24  BANK25  BANK26  BANK27  BANK28  BANK29  BANK30  BANK3
      +1  BANK32  BANK33  BANK34  BANK35  BANK36
  2716 ;;      Params:         3       0       0       0       0       0       0       0       0       0       0       0       
      +0       0       0       0       0       0       0       0       0       0       0       0       0       0       0       
      +0       0       0       0       0       0
  2717 ;;      Locals:         0       0       0       0       0       0       0       0       0       0       0       0       
      +0       0       0       0       0       0       0       0       0       0       0       0       0       0       0       
      +0       0       0       0       0       0
  2718 ;;      Temps:          0       0       0       0       0       0       0       0       0       0       0       0       
      +0       0       0       0       0       0       0       0       0       0       0       0       0       0       0       
      +0       0       0       0       0       0
  2719 ;;      Totals:         3       0       0       0       0       0       0       0       0       0       0       0       
      +0       0       0       0       0       0       0       0       0       0       0       0       0       0       0       
      +0       0       0       0       0       0
  2720 ;;Total ram usage:        3 bytes
  2721 ;; Hardware stack levels used: 1
  2722 ;; Hardware stack levels required when called: 3
  2723 ;; This function calls:
  2724 ;;		Nothing
  2725 ;; This function is called by:
  2726 ;;		_PWM3_16BIT_Initialize
  2727 ;; This function uses a non-reentrant model
  2728 ;;
  2729                           
  2730                           	psect	text19
  2731   003960                     __ptext19:
  2732                           	callstack 0
  2733   003960                     _PWM3_16BIT_Slice1Output1_SetInterruptHandler:
  2734                           	callstack 121
  2735   003960                     
  2736                           ;mcc_generated_files/pwm/src/pwm3_16bit.c: 179: void PWM3_16BIT_Slice1Output1_SetInterru
      +                          ptHandler(void (* InterruptHandler)(void));mcc_generated_files/pwm/src/pwm3_16bit.c: 180
      +                          : {;mcc_generated_files/pwm/src/pwm3_16bit.c: 181:     PWM3_16BIT_Slice1Output1_Interrup
      +                          tHandler = InterruptHandler;
  2737   003960  C503  F5AD         	movff	PWM3_16BIT_Slice1Output1_SetInterruptHandler@InterruptHandler,_PWM3_16BIT_Slice1O
      +                          utput1_InterruptHandler
  2738   003964  C504  F5AE         	movff	PWM3_16BIT_Slice1Output1_SetInterruptHandler@InterruptHandler+1,_PWM3_16BIT_Slice
      +                          1Output1_InterruptHandler+1
  2739   003968  C505  F5AF         	movff	PWM3_16BIT_Slice1Output1_SetInterruptHandler@InterruptHandler+2,_PWM3_16BIT_Slice
      +                          1Output1_InterruptHandler+2
  2740   00396C  0012               	return		;funcret
  2741   00396E                     __end_of_PWM3_16BIT_Slice1Output1_SetInterruptHandler:
  2742                           	callstack 0
  2743                           
  2744 ;; *************** function _PWM3_16BIT_Period_SetInterruptHandler *****************
  2745 ;; Defined at:
  2746 ;;		line 189 in file "mcc_generated_files/pwm/src/pwm3_16bit.c"
  2747 ;; Parameters:    Size  Location     Type
  2748 ;;  InterruptHan    3    2[COMRAM] PTR FTN()void 
  2749 ;;		 -> PWM3_16BIT_Period_DefaultInterruptHandler(1), 
  2750 ;; Auto vars:     Size  Location     Type
  2751 ;;		None
  2752 ;; Return value:  Size  Location     Type
  2753 ;;                  1    wreg      void 
  2754 ;; Registers used:
  2755 ;;		wreg, status,2, status,0
  2756 ;; Tracked objects:
  2757 ;;		On entry : 0/0
  2758 ;;		On exit  : 0/0
  2759 ;;		Unchanged: 0/0
  2760 ;; Data sizes:     COMRAM   BANK5   BANK6   BANK7   BANK8   BANK9  BANK10  BANK11  BANK12  BANK13  BANK14  BANK15  BANK1
      +6  BANK17  BANK18  BANK19  BANK20  BANK21  BANK22  BANK23  BANK24  BANK25  BANK26  BANK27  BANK28  BANK29  BANK30  BANK3
      +1  BANK32  BANK33  BANK34  BANK35  BANK36
  2761 ;;      Params:         3       0       0       0       0       0       0       0       0       0       0       0       
      +0       0       0       0       0       0       0       0       0       0       0       0       0       0       0       
      +0       0       0       0       0       0
  2762 ;;      Locals:         0       0       0       0       0       0       0       0       0       0       0       0       
      +0       0       0       0       0       0       0       0       0       0       0       0       0       0       0       
      +0       0       0       0       0       0
  2763 ;;      Temps:          0       0       0       0       0       0       0       0       0       0       0       0       
      +0       0       0       0       0       0       0       0       0       0       0       0       0       0       0       
      +0       0       0       0       0       0
  2764 ;;      Totals:         3       0       0       0       0       0       0       0       0       0       0       0       
      +0       0       0       0       0       0       0       0       0       0       0       0       0       0       0       
      +0       0       0       0       0       0
  2765 ;;Total ram usage:        3 bytes
  2766 ;; Hardware stack levels used: 1
  2767 ;; Hardware stack levels required when called: 3
  2768 ;; This function calls:
  2769 ;;		Nothing
  2770 ;; This function is called by:
  2771 ;;		_PWM3_16BIT_Initialize
  2772 ;; This function uses a non-reentrant model
  2773 ;;
  2774                           
  2775                           	psect	text20
  2776   00396E                     __ptext20:
  2777                           	callstack 0
  2778   00396E                     _PWM3_16BIT_Period_SetInterruptHandler:
  2779                           	callstack 121
  2780   00396E                     
  2781                           ;mcc_generated_files/pwm/src/pwm3_16bit.c: 189: void PWM3_16BIT_Period_SetInterruptHandl
      +                          er(void (* InterruptHandler)(void));mcc_generated_files/pwm/src/pwm3_16bit.c: 190: {;mcc
      +                          _generated_files/pwm/src/pwm3_16bit.c: 191:     PWM3_16BIT_Period_InterruptHandler = Int
      +                          erruptHandler;
  2782   00396E  C503  F5A7         	movff	PWM3_16BIT_Period_SetInterruptHandler@InterruptHandler,_PWM3_16BIT_Period_Interru
      +                          ptHandler
  2783   003972  C504  F5A8         	movff	PWM3_16BIT_Period_SetInterruptHandler@InterruptHandler+1,_PWM3_16BIT_Period_Inter
      +                          ruptHandler+1
  2784   003976  C505  F5A9         	movff	PWM3_16BIT_Period_SetInterruptHandler@InterruptHandler+2,_PWM3_16BIT_Period_Inter
      +                          ruptHandler+2
  2785   00397A  0012               	return		;funcret
  2786   00397C                     __end_of_PWM3_16BIT_Period_SetInterruptHandler:
  2787                           	callstack 0
  2788                           
  2789 ;; *************** function _PIN_MANAGER_Initialize *****************
  2790 ;; Defined at:
  2791 ;;		line 38 in file "mcc_generated_files/system/src/pins.c"
  2792 ;; Parameters:    Size  Location     Type
  2793 ;;		None
  2794 ;; Auto vars:     Size  Location     Type
  2795 ;;		None
  2796 ;; Return value:  Size  Location     Type
  2797 ;;                  1    wreg      void 
  2798 ;; Registers used:
  2799 ;;		wreg, status,2
  2800 ;; Tracked objects:
  2801 ;;		On entry : 0/0
  2802 ;;		On exit  : 0/0
  2803 ;;		Unchanged: 0/0
  2804 ;; Data sizes:     COMRAM   BANK5   BANK6   BANK7   BANK8   BANK9  BANK10  BANK11  BANK12  BANK13  BANK14  BANK15  BANK1
      +6  BANK17  BANK18  BANK19  BANK20  BANK21  BANK22  BANK23  BANK24  BANK25  BANK26  BANK27  BANK28  BANK29  BANK30  BANK3
      +1  BANK32  BANK33  BANK34  BANK35  BANK36
  2805 ;;      Params:         0       0       0       0       0       0       0       0       0       0       0       0       
      +0       0       0       0       0       0       0       0       0       0       0       0       0       0       0       
      +0       0       0       0       0       0
  2806 ;;      Locals:         0       0       0       0       0       0       0       0       0       0       0       0       
      +0       0       0       0       0       0       0       0       0       0       0       0       0       0       0       
      +0       0       0       0       0       0
  2807 ;;      Temps:          0       0       0       0       0       0       0       0       0       0       0       0       
      +0       0       0       0       0       0       0       0       0       0       0       0       0       0       0       
      +0       0       0       0       0       0
  2808 ;;      Totals:         0       0       0       0       0       0       0       0       0       0       0       0       
      +0       0       0       0       0       0       0       0       0       0       0       0       0       0       0       
      +0       0       0       0       0       0
  2809 ;;Total ram usage:        0 bytes
  2810 ;; Hardware stack levels used: 1
  2811 ;; Hardware stack levels required when called: 3
  2812 ;; This function calls:
  2813 ;;		Nothing
  2814 ;; This function is called by:
  2815 ;;		_SYSTEM_Initialize
  2816 ;; This function uses a non-reentrant model
  2817 ;;
  2818                           
  2819                           	psect	text21
  2820   002A3E                     __ptext21:
  2821                           	callstack 0
  2822   002A3E                     _PIN_MANAGER_Initialize:
  2823                           	callstack 122
  2824   002A3E                     
  2825                           ;mcc_generated_files/system/src/pins.c: 43:     LATA = 0x0;
  2826   002A3E  0E00               	movlw	0
  2827   002A40  6EBE               	movwf	190,c	;volatile
  2828                           
  2829                           ;mcc_generated_files/system/src/pins.c: 44:     LATB = 0x0;
  2830   002A42  0E00               	movlw	0
  2831   002A44  6EBF               	movwf	191,c	;volatile
  2832                           
  2833                           ;mcc_generated_files/system/src/pins.c: 45:     LATC = 0x0;
  2834   002A46  0E00               	movlw	0
  2835   002A48  6EC0               	movwf	192,c	;volatile
  2836                           
  2837                           ;mcc_generated_files/system/src/pins.c: 46:     LATD = 0x0;
  2838   002A4A  0E00               	movlw	0
  2839   002A4C  6EC1               	movwf	193,c	;volatile
  2840                           
  2841                           ;mcc_generated_files/system/src/pins.c: 47:     LATE = 0x0;
  2842   002A4E  0E00               	movlw	0
  2843   002A50  6EC2               	movwf	194,c	;volatile
  2844                           
  2845                           ;mcc_generated_files/system/src/pins.c: 52:     TRISA = 0xF;
  2846   002A52  0E0F               	movlw	15
  2847   002A54  6EC6               	movwf	198,c	;volatile
  2848   002A56                     
  2849                           ;mcc_generated_files/system/src/pins.c: 53:     TRISB = 0xFF;
  2850   002A56  68C7               	setf	199,c	;volatile
  2851                           
  2852                           ;mcc_generated_files/system/src/pins.c: 54:     TRISC = 0xBF;
  2853   002A58  0EBF               	movlw	191
  2854   002A5A  6EC8               	movwf	200,c	;volatile
  2855   002A5C                     
  2856                           ;mcc_generated_files/system/src/pins.c: 55:     TRISD = 0xFF;
  2857   002A5C  68C9               	setf	201,c	;volatile
  2858                           
  2859                           ;mcc_generated_files/system/src/pins.c: 56:     TRISE = 0xF;
  2860   002A5E  0E0F               	movlw	15
  2861   002A60  6ECA               	movwf	202,c	;volatile
  2862                           
  2863                           ;mcc_generated_files/system/src/pins.c: 61:     ANSELA = 0xF;
  2864   002A62  0E0F               	movlw	15
  2865   002A64  0104               	movlb	4	; () banked
  2866   002A66  6F00               	movwf	0,b	;volatile
  2867                           
  2868                           ;mcc_generated_files/system/src/pins.c: 62:     ANSELB = 0xEF;
  2869   002A68  0EEF               	movlw	239
  2870   002A6A  6F08               	movwf	8,b	;volatile
  2871                           
  2872                           ;mcc_generated_files/system/src/pins.c: 63:     ANSELC = 0x9F;
  2873   002A6C  0E9F               	movlw	159
  2874   002A6E  6F10               	movwf	16,b	;volatile
  2875   002A70                     
  2876                           ; BSR set to: 4
  2877                           ;mcc_generated_files/system/src/pins.c: 64:     ANSELD = 0xFF;
  2878   002A70  6918               	setf	24,b	;volatile
  2879                           
  2880                           ;mcc_generated_files/system/src/pins.c: 65:     ANSELE = 0x7;
  2881   002A72  0E07               	movlw	7
  2882   002A74  6F20               	movwf	32,b	;volatile
  2883                           
  2884                           ;mcc_generated_files/system/src/pins.c: 70:     WPUA = 0x0;
  2885   002A76  0E00               	movlw	0
  2886   002A78  6F01               	movwf	1,b	;volatile
  2887                           
  2888                           ;mcc_generated_files/system/src/pins.c: 71:     WPUB = 0x0;
  2889   002A7A  0E00               	movlw	0
  2890   002A7C  6F09               	movwf	9,b	;volatile
  2891                           
  2892                           ;mcc_generated_files/system/src/pins.c: 72:     WPUC = 0x0;
  2893   002A7E  0E00               	movlw	0
  2894   002A80  6F11               	movwf	17,b	;volatile
  2895                           
  2896                           ;mcc_generated_files/system/src/pins.c: 73:     WPUD = 0x0;
  2897   002A82  0E00               	movlw	0
  2898   002A84  6F19               	movwf	25,b	;volatile
  2899                           
  2900                           ;mcc_generated_files/system/src/pins.c: 74:     WPUE = 0x0;
  2901   002A86  0E00               	movlw	0
  2902   002A88  6F21               	movwf	33,b	;volatile
  2903                           
  2904                           ;mcc_generated_files/system/src/pins.c: 79:     ODCONA = 0x0;
  2905   002A8A  0E00               	movlw	0
  2906   002A8C  6F02               	movwf	2,b	;volatile
  2907                           
  2908                           ;mcc_generated_files/system/src/pins.c: 80:     ODCONB = 0x0;
  2909   002A8E  0E00               	movlw	0
  2910   002A90  6F0A               	movwf	10,b	;volatile
  2911                           
  2912                           ;mcc_generated_files/system/src/pins.c: 81:     ODCONC = 0x0;
  2913   002A92  0E00               	movlw	0
  2914   002A94  6F12               	movwf	18,b	;volatile
  2915                           
  2916                           ;mcc_generated_files/system/src/pins.c: 82:     ODCOND = 0x0;
  2917   002A96  0E00               	movlw	0
  2918   002A98  6F1A               	movwf	26,b	;volatile
  2919                           
  2920                           ;mcc_generated_files/system/src/pins.c: 83:     ODCONE = 0x0;
  2921   002A9A  0E00               	movlw	0
  2922   002A9C  6F22               	movwf	34,b	;volatile
  2923   002A9E                     
  2924                           ; BSR set to: 4
  2925                           ;mcc_generated_files/system/src/pins.c: 88:     SLRCONA = 0xFF;
  2926   002A9E  6903               	setf	3,b	;volatile
  2927   002AA0                     
  2928                           ; BSR set to: 4
  2929                           ;mcc_generated_files/system/src/pins.c: 89:     SLRCONB = 0xFF;
  2930   002AA0  690B               	setf	11,b	;volatile
  2931   002AA2                     
  2932                           ; BSR set to: 4
  2933                           ;mcc_generated_files/system/src/pins.c: 90:     SLRCONC = 0xFF;
  2934   002AA2  6913               	setf	19,b	;volatile
  2935   002AA4                     
  2936                           ; BSR set to: 4
  2937                           ;mcc_generated_files/system/src/pins.c: 91:     SLRCOND = 0xFF;
  2938   002AA4  691B               	setf	27,b	;volatile
  2939                           
  2940                           ;mcc_generated_files/system/src/pins.c: 92:     SLRCONE = 0x7;
  2941   002AA6  0E07               	movlw	7
  2942   002AA8  6F23               	movwf	35,b	;volatile
  2943                           
  2944                           ;mcc_generated_files/system/src/pins.c: 97:     INLVLA = 0xE;
  2945   002AAA  0E0E               	movlw	14
  2946   002AAC  6F04               	movwf	4,b	;volatile
  2947                           
  2948                           ;mcc_generated_files/system/src/pins.c: 98:     INLVLB = 0xEF;
  2949   002AAE  0EEF               	movlw	239
  2950   002AB0  6F0C               	movwf	12,b	;volatile
  2951                           
  2952                           ;mcc_generated_files/system/src/pins.c: 99:     INLVLC = 0x9F;
  2953   002AB2  0E9F               	movlw	159
  2954   002AB4  6F14               	movwf	20,b	;volatile
  2955   002AB6                     
  2956                           ; BSR set to: 4
  2957                           ;mcc_generated_files/system/src/pins.c: 100:     INLVLD = 0xFF;
  2958   002AB6  691C               	setf	28,b	;volatile
  2959                           
  2960                           ;mcc_generated_files/system/src/pins.c: 101:     INLVLE = 0xF;
  2961   002AB8  0E0F               	movlw	15
  2962   002ABA  6F24               	movwf	36,b	;volatile
  2963                           
  2964                           ;mcc_generated_files/system/src/pins.c: 106:     RB1I2C = 0x0;
  2965   002ABC  0E00               	movlw	0
  2966   002ABE  0102               	movlb	2	; () banked
  2967   002AC0  6F89               	movwf	137,b	;volatile
  2968                           
  2969                           ;mcc_generated_files/system/src/pins.c: 107:     RB2I2C = 0x0;
  2970   002AC2  0E00               	movlw	0
  2971   002AC4  6F88               	movwf	136,b	;volatile
  2972                           
  2973                           ;mcc_generated_files/system/src/pins.c: 108:     RC3I2C = 0x0;
  2974   002AC6  0E00               	movlw	0
  2975   002AC8  6F87               	movwf	135,b	;volatile
  2976                           
  2977                           ;mcc_generated_files/system/src/pins.c: 109:     RC4I2C = 0x0;
  2978   002ACA  0E00               	movlw	0
  2979   002ACC  6F86               	movwf	134,b	;volatile
  2980                           
  2981                           ;mcc_generated_files/system/src/pins.c: 113:     U1RXPPS = 0x15;
  2982   002ACE  0E15               	movlw	21
  2983   002AD0  6F72               	movwf	114,b	;volatile
  2984                           
  2985                           ;mcc_generated_files/system/src/pins.c: 114:     RC6PPS = 0x20;
  2986   002AD2  0E20               	movlw	32
  2987   002AD4  6F17               	movwf	23,b	;volatile
  2988                           
  2989                           ;mcc_generated_files/system/src/pins.c: 119:     IOCAP = 0x0;
  2990   002AD6  0E00               	movlw	0
  2991   002AD8  0104               	movlb	4	; () banked
  2992   002ADA  6F05               	movwf	5,b	;volatile
  2993                           
  2994                           ;mcc_generated_files/system/src/pins.c: 120:     IOCAN = 0x0;
  2995   002ADC  0E00               	movlw	0
  2996   002ADE  6F06               	movwf	6,b	;volatile
  2997                           
  2998                           ;mcc_generated_files/system/src/pins.c: 121:     IOCAF = 0x0;
  2999   002AE0  0E00               	movlw	0
  3000   002AE2  6F07               	movwf	7,b	;volatile
  3001                           
  3002                           ;mcc_generated_files/system/src/pins.c: 122:     IOCBP = 0x0;
  3003   002AE4  0E00               	movlw	0
  3004   002AE6  6F0D               	movwf	13,b	;volatile
  3005                           
  3006                           ;mcc_generated_files/system/src/pins.c: 123:     IOCBN = 0x0;
  3007   002AE8  0E00               	movlw	0
  3008   002AEA  6F0E               	movwf	14,b	;volatile
  3009                           
  3010                           ;mcc_generated_files/system/src/pins.c: 124:     IOCBF = 0x0;
  3011   002AEC  0E00               	movlw	0
  3012   002AEE  6F0F               	movwf	15,b	;volatile
  3013                           
  3014                           ;mcc_generated_files/system/src/pins.c: 125:     IOCCP = 0x0;
  3015   002AF0  0E00               	movlw	0
  3016   002AF2  6F15               	movwf	21,b	;volatile
  3017                           
  3018                           ;mcc_generated_files/system/src/pins.c: 126:     IOCCN = 0x0;
  3019   002AF4  0E00               	movlw	0
  3020   002AF6  6F16               	movwf	22,b	;volatile
  3021                           
  3022                           ;mcc_generated_files/system/src/pins.c: 127:     IOCCF = 0x0;
  3023   002AF8  0E00               	movlw	0
  3024   002AFA  6F17               	movwf	23,b	;volatile
  3025                           
  3026                           ;mcc_generated_files/system/src/pins.c: 128:     IOCEP = 0x0;
  3027   002AFC  0E00               	movlw	0
  3028   002AFE  6F25               	movwf	37,b	;volatile
  3029                           
  3030                           ;mcc_generated_files/system/src/pins.c: 129:     IOCEN = 0x0;
  3031   002B00  0E00               	movlw	0
  3032   002B02  6F26               	movwf	38,b	;volatile
  3033                           
  3034                           ;mcc_generated_files/system/src/pins.c: 130:     IOCEF = 0x0;
  3035   002B04  0E00               	movlw	0
  3036   002B06  6F27               	movwf	39,b	;volatile
  3037   002B08                     
  3038                           ; BSR set to: 4
  3039   002B08  0012               	return		;funcret
  3040   002B0A                     __end_of_PIN_MANAGER_Initialize:
  3041                           	callstack 0
  3042                           
  3043 ;; *************** function _NVM_Initialize *****************
  3044 ;; Defined at:
  3045 ;;		line 43 in file "mcc_generated_files/nvm/src/nvm.c"
  3046 ;; Parameters:    Size  Location     Type
  3047 ;;		None
  3048 ;; Auto vars:     Size  Location     Type
  3049 ;;		None
  3050 ;; Return value:  Size  Location     Type
  3051 ;;                  1    wreg      void 
  3052 ;; Registers used:
  3053 ;;		cstack
  3054 ;; Tracked objects:
  3055 ;;		On entry : 0/0
  3056 ;;		On exit  : 0/0
  3057 ;;		Unchanged: 0/0
  3058 ;; Data sizes:     COMRAM   BANK5   BANK6   BANK7   BANK8   BANK9  BANK10  BANK11  BANK12  BANK13  BANK14  BANK15  BANK1
      +6  BANK17  BANK18  BANK19  BANK20  BANK21  BANK22  BANK23  BANK24  BANK25  BANK26  BANK27  BANK28  BANK29  BANK30  BANK3
      +1  BANK32  BANK33  BANK34  BANK35  BANK36
  3059 ;;      Params:         0       0       0       0       0       0       0       0       0       0       0       0       
      +0       0       0       0       0       0       0       0       0       0       0       0       0       0       0       
      +0       0       0       0       0       0
  3060 ;;      Locals:         0       0       0       0       0       0       0       0       0       0       0       0       
      +0       0       0       0       0       0       0       0       0       0       0       0       0       0       0       
      +0       0       0       0       0       0
  3061 ;;      Temps:          0       0       0       0       0       0       0       0       0       0       0       0       
      +0       0       0       0       0       0       0       0       0       0       0       0       0       0       0       
      +0       0       0       0       0       0
  3062 ;;      Totals:         0       0       0       0       0       0       0       0       0       0       0       0       
      +0       0       0       0       0       0       0       0       0       0       0       0       0       0       0       
      +0       0       0       0       0       0
  3063 ;;Total ram usage:        0 bytes
  3064 ;; Hardware stack levels used: 1
  3065 ;; Hardware stack levels required when called: 4
  3066 ;; This function calls:
  3067 ;;		_NVM_StatusClear
  3068 ;; This function is called by:
  3069 ;;		_SYSTEM_Initialize
  3070 ;; This function uses a non-reentrant model
  3071 ;;
  3072                           
  3073                           	psect	text22
  3074   0039CC                     __ptext22:
  3075                           	callstack 0
  3076   0039CC                     _NVM_Initialize:
  3077                           	callstack 121
  3078   0039CC                     
  3079                           ;mcc_generated_files/nvm/src/nvm.c: 45:     NVM_StatusClear();
  3080   0039CC  ECE9  F01C         	call	_NVM_StatusClear	;wreg free
  3081   0039D0  0012               	return		;funcret
  3082   0039D2                     __end_of_NVM_Initialize:
  3083                           	callstack 0
  3084                           
  3085 ;; *************** function _NVM_StatusClear *****************
  3086 ;; Defined at:
  3087 ;;		line 65 in file "mcc_generated_files/nvm/src/nvm.c"
  3088 ;; Parameters:    Size  Location     Type
  3089 ;;		None
  3090 ;; Auto vars:     Size  Location     Type
  3091 ;;		None
  3092 ;; Return value:  Size  Location     Type
  3093 ;;                  1    wreg      void 
  3094 ;; Registers used:
  3095 ;;		None
  3096 ;; Tracked objects:
  3097 ;;		On entry : 0/0
  3098 ;;		On exit  : 0/0
  3099 ;;		Unchanged: 0/0
  3100 ;; Data sizes:     COMRAM   BANK5   BANK6   BANK7   BANK8   BANK9  BANK10  BANK11  BANK12  BANK13  BANK14  BANK15  BANK1
      +6  BANK17  BANK18  BANK19  BANK20  BANK21  BANK22  BANK23  BANK24  BANK25  BANK26  BANK27  BANK28  BANK29  BANK30  BANK3
      +1  BANK32  BANK33  BANK34  BANK35  BANK36
  3101 ;;      Params:         0       0       0       0       0       0       0       0       0       0       0       0       
      +0       0       0       0       0       0       0       0       0       0       0       0       0       0       0       
      +0       0       0       0       0       0
  3102 ;;      Locals:         0       0       0       0       0       0       0       0       0       0       0       0       
      +0       0       0       0       0       0       0       0       0       0       0       0       0       0       0       
      +0       0       0       0       0       0
  3103 ;;      Temps:          0       0       0       0       0       0       0       0       0       0       0       0       
      +0       0       0       0       0       0       0       0       0       0       0       0       0       0       0       
      +0       0       0       0       0       0
  3104 ;;      Totals:         0       0       0       0       0       0       0       0       0       0       0       0       
      +0       0       0       0       0       0       0       0       0       0       0       0       0       0       0       
      +0       0       0       0       0       0
  3105 ;;Total ram usage:        0 bytes
  3106 ;; Hardware stack levels used: 1
  3107 ;; Hardware stack levels required when called: 3
  3108 ;; This function calls:
  3109 ;;		Nothing
  3110 ;; This function is called by:
  3111 ;;		_NVM_Initialize
  3112 ;; This function uses a non-reentrant model
  3113 ;;
  3114                           
  3115                           	psect	text23
  3116   0039D2                     __ptext23:
  3117                           	callstack 0
  3118   0039D2                     _NVM_StatusClear:
  3119                           	callstack 121
  3120   0039D2                     
  3121                           ;mcc_generated_files/nvm/src/nvm.c: 67:     NVMCON1bits.WRERR = 0;
  3122   0039D2  0100               	movlb	0	; () banked
  3123   0039D4  9F41               	bcf	65,7,b	;volsfr
  3124   0039D6                     
  3125                           ; BSR set to: 0
  3126   0039D6  0012               	return		;funcret
  3127   0039D8                     __end_of_NVM_StatusClear:
  3128                           	callstack 0
  3129                           
  3130 ;; *************** function _INTERRUPT_Initialize *****************
  3131 ;; Defined at:
  3132 ;;		line 42 in file "mcc_generated_files/system/src/interrupt.c"
  3133 ;; Parameters:    Size  Location     Type
  3134 ;;		None
  3135 ;; Auto vars:     Size  Location     Type
  3136 ;;		None
  3137 ;; Return value:  Size  Location     Type
  3138 ;;                  1    wreg      void 
  3139 ;; Registers used:
  3140 ;;		wreg, status,2, status,0, cstack
  3141 ;; Tracked objects:
  3142 ;;		On entry : 0/0
  3143 ;;		On exit  : 0/0
  3144 ;;		Unchanged: 0/0
  3145 ;; Data sizes:     COMRAM   BANK5   BANK6   BANK7   BANK8   BANK9  BANK10  BANK11  BANK12  BANK13  BANK14  BANK15  BANK1
      +6  BANK17  BANK18  BANK19  BANK20  BANK21  BANK22  BANK23  BANK24  BANK25  BANK26  BANK27  BANK28  BANK29  BANK30  BANK3
      +1  BANK32  BANK33  BANK34  BANK35  BANK36
  3146 ;;      Params:         0       0       0       0       0       0       0       0       0       0       0       0       
      +0       0       0       0       0       0       0       0       0       0       0       0       0       0       0       
      +0       0       0       0       0       0
  3147 ;;      Locals:         0       0       0       0       0       0       0       0       0       0       0       0       
      +0       0       0       0       0       0       0       0       0       0       0       0       0       0       0       
      +0       0       0       0       0       0
  3148 ;;      Temps:          0       0       0       0       0       0       0       0       0       0       0       0       
      +0       0       0       0       0       0       0       0       0       0       0       0       0       0       0       
      +0       0       0       0       0       0
  3149 ;;      Totals:         0       0       0       0       0       0       0       0       0       0       0       0       
      +0       0       0       0       0       0       0       0       0       0       0       0       0       0       0       
      +0       0       0       0       0       0
  3150 ;;Total ram usage:        0 bytes
  3151 ;; Hardware stack levels used: 1
  3152 ;; Hardware stack levels required when called: 4
  3153 ;; This function calls:
  3154 ;;		_INT0_SetInterruptHandler
  3155 ;;		_INT1_SetInterruptHandler
  3156 ;;		_INT2_SetInterruptHandler
  3157 ;; This function is called by:
  3158 ;;		_SYSTEM_Initialize
  3159 ;; This function uses a non-reentrant model
  3160 ;;
  3161                           
  3162                           	psect	text24
  3163   003598                     __ptext24:
  3164                           	callstack 0
  3165   003598                     _INTERRUPT_Initialize:
  3166                           	callstack 121
  3167   003598                     
  3168                           ;mcc_generated_files/system/src/interrupt.c: 45:     INTCON0bits.IPEN = 0;
  3169   003598  9AD6               	bcf	214,5,c	;volatile
  3170                           
  3171                           ;mcc_generated_files/system/src/interrupt.c: 49:     (PIR1bits.INT0IF = 0);
  3172   00359A  90AF               	bcf	175,0,c	;volatile
  3173                           
  3174                           ;mcc_generated_files/system/src/interrupt.c: 50:     (INTCON0bits.INT0EDG = 1);
  3175   00359C  80D6               	bsf	214,0,c	;volatile
  3176   00359E                     
  3177                           ;mcc_generated_files/system/src/interrupt.c: 52:     INT0_SetInterruptHandler(INT0_Defau
      +                          ltInterruptHandler);
  3178   00359E  0E00               	movlw	0
  3179   0035A0  6E03               	movwf	INT0_SetInterruptHandler@InterruptHandler^(0+1280),c
  3180   0035A2  0E00               	movlw	0
  3181   0035A4  6E04               	movwf	(INT0_SetInterruptHandler@InterruptHandler+1)^(0+1280),c
  3182   0035A6  0E00               	movlw	0
  3183   0035A8  6E05               	movwf	(INT0_SetInterruptHandler@InterruptHandler+2)^(0+1280),c
  3184   0035AA  ECCC  F01C         	call	_INT0_SetInterruptHandler	;wreg free
  3185   0035AE                     
  3186                           ;mcc_generated_files/system/src/interrupt.c: 57:     (PIR6bits.INT1IF = 0);
  3187   0035AE  90B4               	bcf	180,0,c	;volatile
  3188   0035B0                     
  3189                           ;mcc_generated_files/system/src/interrupt.c: 58:     (INTCON0bits.INT1EDG = 1);
  3190   0035B0  82D6               	bsf	214,1,c	;volatile
  3191                           
  3192                           ;mcc_generated_files/system/src/interrupt.c: 60:     INT1_SetInterruptHandler(INT1_Defau
      +                          ltInterruptHandler);
  3193   0035B2  0E00               	movlw	0
  3194   0035B4  6E03               	movwf	INT1_SetInterruptHandler@InterruptHandler^(0+1280),c
  3195   0035B6  0E00               	movlw	0
  3196   0035B8  6E04               	movwf	(INT1_SetInterruptHandler@InterruptHandler+1)^(0+1280),c
  3197   0035BA  0E00               	movlw	0
  3198   0035BC  6E05               	movwf	(INT1_SetInterruptHandler@InterruptHandler+2)^(0+1280),c
  3199   0035BE  ECC5  F01C         	call	_INT1_SetInterruptHandler	;wreg free
  3200   0035C2                     
  3201                           ;mcc_generated_files/system/src/interrupt.c: 65:     (PIR10bits.INT2IF = 0);
  3202   0035C2  90B8               	bcf	184,0,c	;volatile
  3203   0035C4                     
  3204                           ;mcc_generated_files/system/src/interrupt.c: 66:     (INTCON0bits.INT2EDG = 1);
  3205   0035C4  84D6               	bsf	214,2,c	;volatile
  3206                           
  3207                           ;mcc_generated_files/system/src/interrupt.c: 68:     INT2_SetInterruptHandler(INT2_Defau
      +                          ltInterruptHandler);
  3208   0035C6  0E00               	movlw	0
  3209   0035C8  6E03               	movwf	INT2_SetInterruptHandler@InterruptHandler^(0+1280),c
  3210   0035CA  0E00               	movlw	0
  3211   0035CC  6E04               	movwf	(INT2_SetInterruptHandler@InterruptHandler+1)^(0+1280),c
  3212   0035CE  0E00               	movlw	0
  3213   0035D0  6E05               	movwf	(INT2_SetInterruptHandler@InterruptHandler+2)^(0+1280),c
  3214   0035D2  ECBE  F01C         	call	_INT2_SetInterruptHandler	;wreg free
  3215   0035D6  0012               	return		;funcret
  3216   0035D8                     __end_of_INTERRUPT_Initialize:
  3217                           	callstack 0
  3218                           
  3219 ;; *************** function _INT2_SetInterruptHandler *****************
  3220 ;; Defined at:
  3221 ;;		line 167 in file "mcc_generated_files/system/src/interrupt.c"
  3222 ;; Parameters:    Size  Location     Type
  3223 ;;  InterruptHan    3    2[COMRAM] PTR FTN()void 
  3224 ;;		 -> INT2_DefaultInterruptHandler(1), 
  3225 ;; Auto vars:     Size  Location     Type
  3226 ;;		None
  3227 ;; Return value:  Size  Location     Type
  3228 ;;                  1    wreg      void 
  3229 ;; Registers used:
  3230 ;;		wreg, status,2, status,0
  3231 ;; Tracked objects:
  3232 ;;		On entry : 0/0
  3233 ;;		On exit  : 0/0
  3234 ;;		Unchanged: 0/0
  3235 ;; Data sizes:     COMRAM   BANK5   BANK6   BANK7   BANK8   BANK9  BANK10  BANK11  BANK12  BANK13  BANK14  BANK15  BANK1
      +6  BANK17  BANK18  BANK19  BANK20  BANK21  BANK22  BANK23  BANK24  BANK25  BANK26  BANK27  BANK28  BANK29  BANK30  BANK3
      +1  BANK32  BANK33  BANK34  BANK35  BANK36
  3236 ;;      Params:         3       0       0       0       0       0       0       0       0       0       0       0       
      +0       0       0       0       0       0       0       0       0       0       0       0       0       0       0       
      +0       0       0       0       0       0
  3237 ;;      Locals:         0       0       0       0       0       0       0       0       0       0       0       0       
      +0       0       0       0       0       0       0       0       0       0       0       0       0       0       0       
      +0       0       0       0       0       0
  3238 ;;      Temps:          0       0       0       0       0       0       0       0       0       0       0       0       
      +0       0       0       0       0       0       0       0       0       0       0       0       0       0       0       
      +0       0       0       0       0       0
  3239 ;;      Totals:         3       0       0       0       0       0       0       0       0       0       0       0       
      +0       0       0       0       0       0       0       0       0       0       0       0       0       0       0       
      +0       0       0       0       0       0
  3240 ;;Total ram usage:        3 bytes
  3241 ;; Hardware stack levels used: 1
  3242 ;; Hardware stack levels required when called: 3
  3243 ;; This function calls:
  3244 ;;		Nothing
  3245 ;; This function is called by:
  3246 ;;		_INTERRUPT_Initialize
  3247 ;; This function uses a non-reentrant model
  3248 ;;
  3249                           
  3250                           	psect	text25
  3251   00397C                     __ptext25:
  3252                           	callstack 0
  3253   00397C                     _INT2_SetInterruptHandler:
  3254                           	callstack 121
  3255   00397C                     
  3256                           ;mcc_generated_files/system/src/interrupt.c: 168:     INT2_InterruptHandler = InterruptH
      +                          andler;
  3257   00397C  C503  F56C         	movff	INT2_SetInterruptHandler@InterruptHandler,_INT2_InterruptHandler
  3258   003980  C504  F56D         	movff	INT2_SetInterruptHandler@InterruptHandler+1,_INT2_InterruptHandler+1
  3259   003984  C505  F56E         	movff	INT2_SetInterruptHandler@InterruptHandler+2,_INT2_InterruptHandler+2
  3260   003988  0012               	return		;funcret
  3261   00398A                     __end_of_INT2_SetInterruptHandler:
  3262                           	callstack 0
  3263                           
  3264 ;; *************** function _INT1_SetInterruptHandler *****************
  3265 ;; Defined at:
  3266 ;;		line 141 in file "mcc_generated_files/system/src/interrupt.c"
  3267 ;; Parameters:    Size  Location     Type
  3268 ;;  InterruptHan    3    2[COMRAM] PTR FTN()void 
  3269 ;;		 -> INT1_DefaultInterruptHandler(1), 
  3270 ;; Auto vars:     Size  Location     Type
  3271 ;;		None
  3272 ;; Return value:  Size  Location     Type
  3273 ;;                  1    wreg      void 
  3274 ;; Registers used:
  3275 ;;		wreg, status,2, status,0
  3276 ;; Tracked objects:
  3277 ;;		On entry : 0/0
  3278 ;;		On exit  : 0/0
  3279 ;;		Unchanged: 0/0
  3280 ;; Data sizes:     COMRAM   BANK5   BANK6   BANK7   BANK8   BANK9  BANK10  BANK11  BANK12  BANK13  BANK14  BANK15  BANK1
      +6  BANK17  BANK18  BANK19  BANK20  BANK21  BANK22  BANK23  BANK24  BANK25  BANK26  BANK27  BANK28  BANK29  BANK30  BANK3
      +1  BANK32  BANK33  BANK34  BANK35  BANK36
  3281 ;;      Params:         3       0       0       0       0       0       0       0       0       0       0       0       
      +0       0       0       0       0       0       0       0       0       0       0       0       0       0       0       
      +0       0       0       0       0       0
  3282 ;;      Locals:         0       0       0       0       0       0       0       0       0       0       0       0       
      +0       0       0       0       0       0       0       0       0       0       0       0       0       0       0       
      +0       0       0       0       0       0
  3283 ;;      Temps:          0       0       0       0       0       0       0       0       0       0       0       0       
      +0       0       0       0       0       0       0       0       0       0       0       0       0       0       0       
      +0       0       0       0       0       0
  3284 ;;      Totals:         3       0       0       0       0       0       0       0       0       0       0       0       
      +0       0       0       0       0       0       0       0       0       0       0       0       0       0       0       
      +0       0       0       0       0       0
  3285 ;;Total ram usage:        3 bytes
  3286 ;; Hardware stack levels used: 1
  3287 ;; Hardware stack levels required when called: 3
  3288 ;; This function calls:
  3289 ;;		Nothing
  3290 ;; This function is called by:
  3291 ;;		_INTERRUPT_Initialize
  3292 ;; This function uses a non-reentrant model
  3293 ;;
  3294                           
  3295                           	psect	text26
  3296   00398A                     __ptext26:
  3297                           	callstack 0
  3298   00398A                     _INT1_SetInterruptHandler:
  3299                           	callstack 121
  3300   00398A                     
  3301                           ;mcc_generated_files/system/src/interrupt.c: 142:     INT1_InterruptHandler = InterruptH
      +                          andler;
  3302   00398A  C503  F56F         	movff	INT1_SetInterruptHandler@InterruptHandler,_INT1_InterruptHandler
  3303   00398E  C504  F570         	movff	INT1_SetInterruptHandler@InterruptHandler+1,_INT1_InterruptHandler+1
  3304   003992  C505  F571         	movff	INT1_SetInterruptHandler@InterruptHandler+2,_INT1_InterruptHandler+2
  3305   003996  0012               	return		;funcret
  3306   003998                     __end_of_INT1_SetInterruptHandler:
  3307                           	callstack 0
  3308                           
  3309 ;; *************** function _INT0_SetInterruptHandler *****************
  3310 ;; Defined at:
  3311 ;;		line 115 in file "mcc_generated_files/system/src/interrupt.c"
  3312 ;; Parameters:    Size  Location     Type
  3313 ;;  InterruptHan    3    2[COMRAM] PTR FTN()void 
  3314 ;;		 -> INT0_DefaultInterruptHandler(1), 
  3315 ;; Auto vars:     Size  Location     Type
  3316 ;;		None
  3317 ;; Return value:  Size  Location     Type
  3318 ;;                  1    wreg      void 
  3319 ;; Registers used:
  3320 ;;		wreg, status,2, status,0
  3321 ;; Tracked objects:
  3322 ;;		On entry : 0/0
  3323 ;;		On exit  : 0/0
  3324 ;;		Unchanged: 0/0
  3325 ;; Data sizes:     COMRAM   BANK5   BANK6   BANK7   BANK8   BANK9  BANK10  BANK11  BANK12  BANK13  BANK14  BANK15  BANK1
      +6  BANK17  BANK18  BANK19  BANK20  BANK21  BANK22  BANK23  BANK24  BANK25  BANK26  BANK27  BANK28  BANK29  BANK30  BANK3
      +1  BANK32  BANK33  BANK34  BANK35  BANK36
  3326 ;;      Params:         3       0       0       0       0       0       0       0       0       0       0       0       
      +0       0       0       0       0       0       0       0       0       0       0       0       0       0       0       
      +0       0       0       0       0       0
  3327 ;;      Locals:         0       0       0       0       0       0       0       0       0       0       0       0       
      +0       0       0       0       0       0       0       0       0       0       0       0       0       0       0       
      +0       0       0       0       0       0
  3328 ;;      Temps:          0       0       0       0       0       0       0       0       0       0       0       0       
      +0       0       0       0       0       0       0       0       0       0       0       0       0       0       0       
      +0       0       0       0       0       0
  3329 ;;      Totals:         3       0       0       0       0       0       0       0       0       0       0       0       
      +0       0       0       0       0       0       0       0       0       0       0       0       0       0       0       
      +0       0       0       0       0       0
  3330 ;;Total ram usage:        3 bytes
  3331 ;; Hardware stack levels used: 1
  3332 ;; Hardware stack levels required when called: 3
  3333 ;; This function calls:
  3334 ;;		Nothing
  3335 ;; This function is called by:
  3336 ;;		_INTERRUPT_Initialize
  3337 ;; This function uses a non-reentrant model
  3338 ;;
  3339                           
  3340                           	psect	text27
  3341   003998                     __ptext27:
  3342                           	callstack 0
  3343   003998                     _INT0_SetInterruptHandler:
  3344                           	callstack 121
  3345   003998                     
  3346                           ;mcc_generated_files/system/src/interrupt.c: 116:     INT0_InterruptHandler = InterruptH
      +                          andler;
  3347   003998  C503  F572         	movff	INT0_SetInterruptHandler@InterruptHandler,_INT0_InterruptHandler
  3348   00399C  C504  F573         	movff	INT0_SetInterruptHandler@InterruptHandler+1,_INT0_InterruptHandler+1
  3349   0039A0  C505  F574         	movff	INT0_SetInterruptHandler@InterruptHandler+2,_INT0_InterruptHandler+2
  3350   0039A4  0012               	return		;funcret
  3351   0039A6                     __end_of_INT0_SetInterruptHandler:
  3352                           	callstack 0
  3353                           
  3354 ;; *************** function _CLOCK_Initialize *****************
  3355 ;; Defined at:
  3356 ;;		line 37 in file "mcc_generated_files/system/src/clock.c"
  3357 ;; Parameters:    Size  Location     Type
  3358 ;;		None
  3359 ;; Auto vars:     Size  Location     Type
  3360 ;;		None
  3361 ;; Return value:  Size  Location     Type
  3362 ;;                  1    wreg      void 
  3363 ;; Registers used:
  3364 ;;		wreg, status,2
  3365 ;; Tracked objects:
  3366 ;;		On entry : 0/0
  3367 ;;		On exit  : 0/0
  3368 ;;		Unchanged: 0/0
  3369 ;; Data sizes:     COMRAM   BANK5   BANK6   BANK7   BANK8   BANK9  BANK10  BANK11  BANK12  BANK13  BANK14  BANK15  BANK1
      +6  BANK17  BANK18  BANK19  BANK20  BANK21  BANK22  BANK23  BANK24  BANK25  BANK26  BANK27  BANK28  BANK29  BANK30  BANK3
      +1  BANK32  BANK33  BANK34  BANK35  BANK36
  3370 ;;      Params:         0       0       0       0       0       0       0       0       0       0       0       0       
      +0       0       0       0       0       0       0       0       0       0       0       0       0       0       0       
      +0       0       0       0       0       0
  3371 ;;      Locals:         0       0       0       0       0       0       0       0       0       0       0       0       
      +0       0       0       0       0       0       0       0       0       0       0       0       0       0       0       
      +0       0       0       0       0       0
  3372 ;;      Temps:          0       0       0       0       0       0       0       0       0       0       0       0       
      +0       0       0       0       0       0       0       0       0       0       0       0       0       0       0       
      +0       0       0       0       0       0
  3373 ;;      Totals:         0       0       0       0       0       0       0       0       0       0       0       0       
      +0       0       0       0       0       0       0       0       0       0       0       0       0       0       0       
      +0       0       0       0       0       0
  3374 ;;Total ram usage:        0 bytes
  3375 ;; Hardware stack levels used: 1
  3376 ;; Hardware stack levels required when called: 3
  3377 ;; This function calls:
  3378 ;;		Nothing
  3379 ;; This function is called by:
  3380 ;;		_SYSTEM_Initialize
  3381 ;; This function uses a non-reentrant model
  3382 ;;
  3383                           
  3384                           	psect	text28
  3385   0038C0                     __ptext28:
  3386                           	callstack 0
  3387   0038C0                     _CLOCK_Initialize:
  3388                           	callstack 122
  3389   0038C0                     
  3390                           ;mcc_generated_files/system/src/clock.c: 41:     OSCCON1 = 0x63;
  3391   0038C0  0E63               	movlw	99
  3392   0038C2  0100               	movlb	0	; () banked
  3393   0038C4  6FAD               	movwf	173,b	;volatile
  3394                           
  3395                           ;mcc_generated_files/system/src/clock.c: 43:     OSCCON3 = 0x0;
  3396   0038C6  0E00               	movlw	0
  3397   0038C8  6FAF               	movwf	175,b	;volatile
  3398                           
  3399                           ;mcc_generated_files/system/src/clock.c: 45:     OSCEN = 0x0;
  3400   0038CA  0E00               	movlw	0
  3401   0038CC  6FB3               	movwf	179,b	;volatile
  3402                           
  3403                           ;mcc_generated_files/system/src/clock.c: 47:     OSCFRQ = 0x2;
  3404   0038CE  0E02               	movlw	2
  3405   0038D0  6FB1               	movwf	177,b	;volatile
  3406                           
  3407                           ;mcc_generated_files/system/src/clock.c: 49:     OSCTUNE = 0x0;
  3408   0038D2  0E00               	movlw	0
  3409   0038D4  6FB0               	movwf	176,b	;volatile
  3410                           
  3411                           ;mcc_generated_files/system/src/clock.c: 51:     ACTCON = 0x0;
  3412   0038D6  0E00               	movlw	0
  3413   0038D8  6FAC               	movwf	172,b	;volatile
  3414   0038DA                     
  3415                           ; BSR set to: 0
  3416   0038DA  0012               	return		;funcret
  3417   0038DC                     __end_of_CLOCK_Initialize:
  3418                           	callstack 0
  3419                           
  3420 ;; *************** function _CLC1_Initialize *****************
  3421 ;; Defined at:
  3422 ;;		line 38 in file "mcc_generated_files/clc/src/clc1.c"
  3423 ;; Parameters:    Size  Location     Type
  3424 ;;		None
  3425 ;; Auto vars:     Size  Location     Type
  3426 ;;		None
  3427 ;; Return value:  Size  Location     Type
  3428 ;;                  1    wreg      void 
  3429 ;; Registers used:
  3430 ;;		wreg, status,2
  3431 ;; Tracked objects:
  3432 ;;		On entry : 0/0
  3433 ;;		On exit  : 0/0
  3434 ;;		Unchanged: 0/0
  3435 ;; Data sizes:     COMRAM   BANK5   BANK6   BANK7   BANK8   BANK9  BANK10  BANK11  BANK12  BANK13  BANK14  BANK15  BANK1
      +6  BANK17  BANK18  BANK19  BANK20  BANK21  BANK22  BANK23  BANK24  BANK25  BANK26  BANK27  BANK28  BANK29  BANK30  BANK3
      +1  BANK32  BANK33  BANK34  BANK35  BANK36
  3436 ;;      Params:         0       0       0       0       0       0       0       0       0       0       0       0       
      +0       0       0       0       0       0       0       0       0       0       0       0       0       0       0       
      +0       0       0       0       0       0
  3437 ;;      Locals:         0       0       0       0       0       0       0       0       0       0       0       0       
      +0       0       0       0       0       0       0       0       0       0       0       0       0       0       0       
      +0       0       0       0       0       0
  3438 ;;      Temps:          0       0       0       0       0       0       0       0       0       0       0       0       
      +0       0       0       0       0       0       0       0       0       0       0       0       0       0       0       
      +0       0       0       0       0       0
  3439 ;;      Totals:         0       0       0       0       0       0       0       0       0       0       0       0       
      +0       0       0       0       0       0       0       0       0       0       0       0       0       0       0       
      +0       0       0       0       0       0
  3440 ;;Total ram usage:        0 bytes
  3441 ;; Hardware stack levels used: 1
  3442 ;; Hardware stack levels required when called: 3
  3443 ;; This function calls:
  3444 ;;		Nothing
  3445 ;; This function is called by:
  3446 ;;		_SYSTEM_Initialize
  3447 ;; This function uses a non-reentrant model
  3448 ;;
  3449                           
  3450                           	psect	text29
  3451   003658                     __ptext29:
  3452                           	callstack 0
  3453   003658                     _CLC1_Initialize:
  3454                           	callstack 122
  3455   003658                     
  3456                           ;mcc_generated_files/clc/src/clc1.c: 42:     CLCSELECT = 0x0;
  3457   003658  0E00               	movlw	0
  3458   00365A  0100               	movlb	0	; () banked
  3459   00365C  6FD5               	movwf	213,b	;volatile
  3460                           
  3461                           ;mcc_generated_files/clc/src/clc1.c: 44:     CLCnPOL = 0x2;
  3462   00365E  0E02               	movlw	2
  3463   003660  6FD7               	movwf	215,b	;volatile
  3464                           
  3465                           ;mcc_generated_files/clc/src/clc1.c: 46:     CLCnSEL0 = 0x26;
  3466   003662  0E26               	movlw	38
  3467   003664  6FD8               	movwf	216,b	;volatile
  3468                           
  3469                           ;mcc_generated_files/clc/src/clc1.c: 48:     CLCnSEL1 = 0x0;
  3470   003666  0E00               	movlw	0
  3471   003668  6FD9               	movwf	217,b	;volatile
  3472                           
  3473                           ;mcc_generated_files/clc/src/clc1.c: 50:     CLCnSEL2 = 0x0;
  3474   00366A  0E00               	movlw	0
  3475   00366C  6FDA               	movwf	218,b	;volatile
  3476                           
  3477                           ;mcc_generated_files/clc/src/clc1.c: 52:     CLCnSEL3 = 0x0;
  3478   00366E  0E00               	movlw	0
  3479   003670  6FDB               	movwf	219,b	;volatile
  3480                           
  3481                           ;mcc_generated_files/clc/src/clc1.c: 54:     CLCnGLS0 = 0x2;
  3482   003672  0E02               	movlw	2
  3483   003674  6FDC               	movwf	220,b	;volatile
  3484                           
  3485                           ;mcc_generated_files/clc/src/clc1.c: 56:     CLCnGLS1 = 0x0;
  3486   003676  0E00               	movlw	0
  3487   003678  6FDD               	movwf	221,b	;volatile
  3488                           
  3489                           ;mcc_generated_files/clc/src/clc1.c: 58:     CLCnGLS2 = 0x0;
  3490   00367A  0E00               	movlw	0
  3491   00367C  6FDE               	movwf	222,b	;volatile
  3492                           
  3493                           ;mcc_generated_files/clc/src/clc1.c: 60:     CLCnGLS3 = 0x0;
  3494   00367E  0E00               	movlw	0
  3495   003680  6FDF               	movwf	223,b	;volatile
  3496                           
  3497                           ;mcc_generated_files/clc/src/clc1.c: 62:     CLCDATA = 0x0;
  3498   003682  0E00               	movlw	0
  3499   003684  6FD4               	movwf	212,b	;volatile
  3500                           
  3501                           ;mcc_generated_files/clc/src/clc1.c: 64:     CLCnCON = 0x80;
  3502   003686  0E80               	movlw	128
  3503   003688  6FD6               	movwf	214,b	;volatile
  3504   00368A                     
  3505                           ; BSR set to: 0
  3506   00368A  0012               	return		;funcret
  3507   00368C                     __end_of_CLC1_Initialize:
  3508                           	callstack 0
  3509                           
  3510 ;; *************** function _ADCC_Initialize *****************
  3511 ;; Defined at:
  3512 ;;		line 45 in file "mcc_generated_files/adc/src/adcc.c"
  3513 ;; Parameters:    Size  Location     Type
  3514 ;;		None
  3515 ;; Auto vars:     Size  Location     Type
  3516 ;;		None
  3517 ;; Return value:  Size  Location     Type
  3518 ;;                  1    wreg      void 
  3519 ;; Registers used:
  3520 ;;		wreg, status,2
  3521 ;; Tracked objects:
  3522 ;;		On entry : 0/0
  3523 ;;		On exit  : 0/0
  3524 ;;		Unchanged: 0/0
  3525 ;; Data sizes:     COMRAM   BANK5   BANK6   BANK7   BANK8   BANK9  BANK10  BANK11  BANK12  BANK13  BANK14  BANK15  BANK1
      +6  BANK17  BANK18  BANK19  BANK20  BANK21  BANK22  BANK23  BANK24  BANK25  BANK26  BANK27  BANK28  BANK29  BANK30  BANK3
      +1  BANK32  BANK33  BANK34  BANK35  BANK36
  3526 ;;      Params:         0       0       0       0       0       0       0       0       0       0       0       0       
      +0       0       0       0       0       0       0       0       0       0       0       0       0       0       0       
      +0       0       0       0       0       0
  3527 ;;      Locals:         0       0       0       0       0       0       0       0       0       0       0       0       
      +0       0       0       0       0       0       0       0       0       0       0       0       0       0       0       
      +0       0       0       0       0       0
  3528 ;;      Temps:          0       0       0       0       0       0       0       0       0       0       0       0       
      +0       0       0       0       0       0       0       0       0       0       0       0       0       0       0       
      +0       0       0       0       0       0
  3529 ;;      Totals:         0       0       0       0       0       0       0       0       0       0       0       0       
      +0       0       0       0       0       0       0       0       0       0       0       0       0       0       0       
      +0       0       0       0       0       0
  3530 ;;Total ram usage:        0 bytes
  3531 ;; Hardware stack levels used: 1
  3532 ;; Hardware stack levels required when called: 3
  3533 ;; This function calls:
  3534 ;;		Nothing
  3535 ;; This function is called by:
  3536 ;;		_SYSTEM_Initialize
  3537 ;; This function uses a non-reentrant model
  3538 ;;
  3539                           
  3540                           	psect	text30
  3541   0032AE                     __ptext30:
  3542                           	callstack 0
  3543   0032AE                     _ADCC_Initialize:
  3544                           	callstack 122
  3545   0032AE                     
  3546                           ;mcc_generated_files/adc/src/adcc.c: 49:     ADLTHL = 0x0;
  3547   0032AE  0E00               	movlw	0
  3548   0032B0  0103               	movlb	3	; () banked
  3549   0032B2  6FD9               	movwf	217,b	;volatile
  3550                           
  3551                           ;mcc_generated_files/adc/src/adcc.c: 51:     ADLTHH = 0x0;
  3552   0032B4  0E00               	movlw	0
  3553   0032B6  6FDA               	movwf	218,b	;volatile
  3554                           
  3555                           ;mcc_generated_files/adc/src/adcc.c: 53:     ADUTHL = 0x0;
  3556   0032B8  0E00               	movlw	0
  3557   0032BA  6FDB               	movwf	219,b	;volatile
  3558                           
  3559                           ;mcc_generated_files/adc/src/adcc.c: 55:     ADUTHH = 0x0;
  3560   0032BC  0E00               	movlw	0
  3561   0032BE  6FDC               	movwf	220,b	;volatile
  3562                           
  3563                           ;mcc_generated_files/adc/src/adcc.c: 57:     ADSTPTL = 0x0;
  3564   0032C0  0E00               	movlw	0
  3565   0032C2  6FDF               	movwf	223,b	;volatile
  3566                           
  3567                           ;mcc_generated_files/adc/src/adcc.c: 59:     ADSTPTH = 0x0;
  3568   0032C4  0E00               	movlw	0
  3569   0032C6  6FE0               	movwf	224,b	;volatile
  3570                           
  3571                           ;mcc_generated_files/adc/src/adcc.c: 61:     ADACCU = 0x0;
  3572   0032C8  0E00               	movlw	0
  3573   0032CA  6FE5               	movwf	229,b	;volatile
  3574                           
  3575                           ;mcc_generated_files/adc/src/adcc.c: 63:     ADRPT = 0x0;
  3576   0032CC  0E00               	movlw	0
  3577   0032CE  6FE7               	movwf	231,b	;volatile
  3578                           
  3579                           ;mcc_generated_files/adc/src/adcc.c: 65:     ADPCH = 0x0;
  3580   0032D0  0E00               	movlw	0
  3581   0032D2  6FEC               	movwf	236,b	;volatile
  3582                           
  3583                           ;mcc_generated_files/adc/src/adcc.c: 67:     ADACQL = 0x1;
  3584   0032D4  0E01               	movlw	1
  3585   0032D6  6FEE               	movwf	238,b	;volatile
  3586                           
  3587                           ;mcc_generated_files/adc/src/adcc.c: 69:     ADACQH = 0x0;
  3588   0032D8  0E00               	movlw	0
  3589   0032DA  6FEF               	movwf	239,b	;volatile
  3590                           
  3591                           ;mcc_generated_files/adc/src/adcc.c: 71:     ADCAP = 0x0;
  3592   0032DC  0E00               	movlw	0
  3593   0032DE  6FF0               	movwf	240,b	;volatile
  3594                           
  3595                           ;mcc_generated_files/adc/src/adcc.c: 73:     ADPREL = 0x0;
  3596   0032E0  0E00               	movlw	0
  3597   0032E2  6FF1               	movwf	241,b	;volatile
  3598                           
  3599                           ;mcc_generated_files/adc/src/adcc.c: 75:     ADPREH = 0x0;
  3600   0032E4  0E00               	movlw	0
  3601   0032E6  6FF2               	movwf	242,b	;volatile
  3602                           
  3603                           ;mcc_generated_files/adc/src/adcc.c: 77:     ADCON1 = 0x0;
  3604   0032E8  0E00               	movlw	0
  3605   0032EA  6FF4               	movwf	244,b	;volatile
  3606                           
  3607                           ;mcc_generated_files/adc/src/adcc.c: 79:     ADCON2 = 0x10;
  3608   0032EC  0E10               	movlw	16
  3609   0032EE  6FF5               	movwf	245,b	;volatile
  3610                           
  3611                           ;mcc_generated_files/adc/src/adcc.c: 81:     ADCON3 = 0x0;
  3612   0032F0  0E00               	movlw	0
  3613   0032F2  6FF6               	movwf	246,b	;volatile
  3614                           
  3615                           ;mcc_generated_files/adc/src/adcc.c: 83:     ADSTAT = 0x0;
  3616   0032F4  0E00               	movlw	0
  3617   0032F6  6FF7               	movwf	247,b	;volatile
  3618                           
  3619                           ;mcc_generated_files/adc/src/adcc.c: 85:     ADREF = 0x0;
  3620   0032F8  0E00               	movlw	0
  3621   0032FA  6FF8               	movwf	248,b	;volatile
  3622                           
  3623                           ;mcc_generated_files/adc/src/adcc.c: 87:     ADACT = 0x0;
  3624   0032FC  0E00               	movlw	0
  3625   0032FE  6FF9               	movwf	249,b	;volatile
  3626                           
  3627                           ;mcc_generated_files/adc/src/adcc.c: 89:     ADCLK = 0x0;
  3628   003300  0E00               	movlw	0
  3629   003302  6FFA               	movwf	250,b	;volatile
  3630                           
  3631                           ;mcc_generated_files/adc/src/adcc.c: 91:     ADCON0 = 0x80;
  3632   003304  0E80               	movlw	128
  3633   003306  6FF3               	movwf	243,b	;volatile
  3634   003308                     
  3635                           ; BSR set to: 3
  3636                           ;mcc_generated_files/adc/src/adcc.c: 94:     PIR1bits.ADIF = 0;
  3637   003308  94AF               	bcf	175,2,c	;volatile
  3638   00330A                     
  3639                           ; BSR set to: 3
  3640                           ;mcc_generated_files/adc/src/adcc.c: 97:     PIR2bits.ADTIF = 0;
  3641   00330A  90B0               	bcf	176,0,c	;volatile
  3642   00330C                     
  3643                           ; BSR set to: 3
  3644   00330C  0012               	return		;funcret
  3645   00330E                     __end_of_ADCC_Initialize:
  3646                           	callstack 0
  3647                           
  3648 ;; *************** function _Rotate *****************
  3649 ;; Defined at:
  3650 ;;		line 54 in file "Labs/Lab03_Rotate/Rotate.c"
  3651 ;; Parameters:    Size  Location     Type
  3652 ;;		None
  3653 ;; Auto vars:     Size  Location     Type
  3654 ;;		None
  3655 ;; Return value:  Size  Location     Type
  3656 ;;                  1    wreg      void 
  3657 ;; Registers used:
  3658 ;;		wreg, status,2, status,0
  3659 ;; Tracked objects:
  3660 ;;		On entry : 0/0
  3661 ;;		On exit  : 0/0
  3662 ;;		Unchanged: 0/0
  3663 ;; Data sizes:     COMRAM   BANK5   BANK6   BANK7   BANK8   BANK9  BANK10  BANK11  BANK12  BANK13  BANK14  BANK15  BANK1
      +6  BANK17  BANK18  BANK19  BANK20  BANK21  BANK22  BANK23  BANK24  BANK25  BANK26  BANK27  BANK28  BANK29  BANK30  BANK3
      +1  BANK32  BANK33  BANK34  BANK35  BANK36
  3664 ;;      Params:         0       0       0       0       0       0       0       0       0       0       0       0       
      +0       0       0       0       0       0       0       0       0       0       0       0       0       0       0       
      +0       0       0       0       0       0
  3665 ;;      Locals:         0       0       0       0       0       0       0       0       0       0       0       0       
      +0       0       0       0       0       0       0       0       0       0       0       0       0       0       0       
      +0       0       0       0       0       0
  3666 ;;      Temps:          1       0       0       0       0       0       0       0       0       0       0       0       
      +0       0       0       0       0       0       0       0       0       0       0       0       0       0       0       
      +0       0       0       0       0       0
  3667 ;;      Totals:         1       0       0       0       0       0       0       0       0       0       0       0       
      +0       0       0       0       0       0       0       0       0       0       0       0       0       0       0       
      +0       0       0       0       0       0
  3668 ;;Total ram usage:        1 bytes
  3669 ;; Hardware stack levels used: 1
  3670 ;; Hardware stack levels required when called: 3
  3671 ;; This function calls:
  3672 ;;		Nothing
  3673 ;; This function is called by:
  3674 ;;		_main
  3675 ;; This function uses a non-reentrant model
  3676 ;;
  3677                           
  3678                           	psect	text31
  3679   00323C                     __ptext31:
  3680                           	callstack 0
  3681   00323C                     _Rotate:
  3682                           	callstack 123
  3683   00323C                     
  3684                           ;Labs/Lab03_Rotate/Rotate.c: 56:     if (labState == 0) {
  3685   00323C  505D               	movf	_labState^(0+1280),w,c
  3686   00323E  A4D8               	btfss	status,2,c
  3687   003240  EF24  F019         	goto	u521
  3688   003244  EF26  F019         	goto	u520
  3689   003248                     u521:
  3690   003248  EF2D  F019         	goto	l2723
  3691   00324C                     u520:
  3692   00324C  0E00               	movlw	0
  3693   00324E  6EBE               	movwf	190,c	;volatile
  3694   003250  88BE               	bsf	190,4,c	;volatile
  3695   003252                     
  3696                           ;Labs/Lab03_Rotate/Rotate.c: 61:         rotateReg = 1;
  3697   003252  0E01               	movlw	1
  3698   003254  6E5A               	movwf	_rotateReg^(0+1280),c
  3699                           
  3700                           ;Labs/Lab03_Rotate/Rotate.c: 63:         labState = 1;
  3701   003256  0E01               	movlw	1
  3702   003258  6E5D               	movwf	_labState^(0+1280),c
  3703   00325A                     l2723:
  3704                           
  3705                           ;Labs/Lab03_Rotate/Rotate.c: 66:     if (labState == 1) {
  3706   00325A  045D               	decf	_labState^(0+1280),w,c
  3707   00325C  A4D8               	btfss	status,2,c
  3708   00325E  EF33  F019         	goto	u531
  3709   003262  EF35  F019         	goto	u530
  3710   003266                     u531:
  3711   003266  EF4C  F019         	goto	l2735
  3712   00326A                     u530:
  3713   00326A                     
  3714                           ;Labs/Lab03_Rotate/Rotate.c: 67:         _delay((unsigned long)((500)*(500000/4000.0)));
  3715   00326A  0E52               	movlw	82
  3716   00326C  6E03               	movwf	??_Rotate^(0+1280),c
  3717   00326E  0E2A               	movlw	42
  3718   003270                     u2447:
  3719   003270  2EE8               	decfsz	wreg,f,c
  3720   003272  D7FE               	bra	u2447
  3721   003274  2E03               	decfsz	??_Rotate^(0+1280),f,c
  3722   003276  D7FC               	bra	u2447
  3723   003278                     
  3724                           ;Labs/Lab03_Rotate/Rotate.c: 69:         rotateReg <<= 1;
  3725   003278  90D8               	bcf	status,0,c
  3726   00327A  365A               	rlcf	_rotateReg^(0+1280),f,c
  3727   00327C                     
  3728                           ;Labs/Lab03_Rotate/Rotate.c: 72:         if (rotateReg == 16)
  3729   00327C  0E10               	movlw	16
  3730   00327E  185A               	xorwf	_rotateReg^(0+1280),w,c
  3731   003280  A4D8               	btfss	status,2,c
  3732   003282  EF45  F019         	goto	u541
  3733   003286  EF47  F019         	goto	u540
  3734   00328A                     u541:
  3735   00328A  EF49  F019         	goto	l2733
  3736   00328E                     u540:
  3737   00328E                     
  3738                           ;Labs/Lab03_Rotate/Rotate.c: 73:             rotateReg = 1;
  3739   00328E  0E01               	movlw	1
  3740   003290  6E5A               	movwf	_rotateReg^(0+1280),c
  3741   003292                     l2733:
  3742                           
  3743                           ;Labs/Lab03_Rotate/Rotate.c: 77:         LATA = (rotateReg << 4);
  3744   003292  385A               	swapf	_rotateReg^(0+1280),w,c
  3745   003294  0BF0               	andlw	240
  3746   003296  6EBE               	movwf	190,c	;volatile
  3747   003298                     l2735:
  3748                           
  3749                           ;Labs/Lab03_Rotate/Rotate.c: 80:     if (switchEvent) {
  3750   003298  505E               	movf	_switchEvent^(0+1280),w,c
  3751   00329A  B4D8               	btfsc	status,2,c
  3752   00329C  EF52  F019         	goto	u551
  3753   0032A0  EF54  F019         	goto	u550
  3754   0032A4                     u551:
  3755   0032A4  EF56  F019         	goto	l87
  3756   0032A8                     u550:
  3757   0032A8                     
  3758                           ;Labs/Lab03_Rotate/Rotate.c: 81:         labState = 0;
  3759   0032A8  0E00               	movlw	0
  3760   0032AA  6E5D               	movwf	_labState^(0+1280),c
  3761   0032AC                     l87:
  3762   0032AC  0012               	return		;funcret
  3763   0032AE                     __end_of_Rotate:
  3764                           	callstack 0
  3765                           
  3766 ;; *************** function _PWM *****************
  3767 ;; Defined at:
  3768 ;;		line 60 in file "Labs/Lab06_PulseWidthModulation/PWM.c"
  3769 ;; Parameters:    Size  Location     Type
  3770 ;;		None
  3771 ;; Auto vars:     Size  Location     Type
  3772 ;;		None
  3773 ;; Return value:  Size  Location     Type
  3774 ;;                  1    wreg      void 
  3775 ;; Registers used:
  3776 ;;		wreg, fsr1l, fsr1h, fsr2l, fsr2h, status,2, status,0, tblptrl, tblptrh, tblptru, cstack
  3777 ;; Tracked objects:
  3778 ;;		On entry : 0/0
  3779 ;;		On exit  : 0/0
  3780 ;;		Unchanged: 0/0
  3781 ;; Data sizes:     COMRAM   BANK5   BANK6   BANK7   BANK8   BANK9  BANK10  BANK11  BANK12  BANK13  BANK14  BANK15  BANK1
      +6  BANK17  BANK18  BANK19  BANK20  BANK21  BANK22  BANK23  BANK24  BANK25  BANK26  BANK27  BANK28  BANK29  BANK30  BANK3
      +1  BANK32  BANK33  BANK34  BANK35  BANK36
  3782 ;;      Params:         0       0       0       0       0       0       0       0       0       0       0       0       
      +0       0       0       0       0       0       0       0       0       0       0       0       0       0       0       
      +0       0       0       0       0       0
  3783 ;;      Locals:         0       0       0       0       0       0       0       0       0       0       0       0       
      +0       0       0       0       0       0       0       0       0       0       0       0       0       0       0       
      +0       0       0       0       0       0
  3784 ;;      Temps:          1       0       0       0       0       0       0       0       0       0       0       0       
      +0       0       0       0       0       0       0       0       0       0       0       0       0       0       0       
      +0       0       0       0       0       0
  3785 ;;      Totals:         1       0       0       0       0       0       0       0       0       0       0       0       
      +0       0       0       0       0       0       0       0       0       0       0       0       0       0       0       
      +0       0       0       0       0       0
  3786 ;;Total ram usage:        1 bytes
  3787 ;; Hardware stack levels used: 1
  3788 ;; Hardware stack levels required when called: 11
  3789 ;; This function calls:
  3790 ;;		_ADCC_GetSingleConversion
  3791 ;;		_PWM3_16BIT_LoadBufferRegisters
  3792 ;;		_PWM3_16BIT_SetSlice1Output1DutyCycleRegister
  3793 ;;		_PWM_Output_D5_Disable
  3794 ;;		_PWM_Output_D5_Enable
  3795 ;;		_TMR2_Start
  3796 ;;		_TMR2_Stop
  3797 ;;		_printf
  3798 ;; This function is called by:
  3799 ;;		_main
  3800 ;; This function uses a non-reentrant model
  3801 ;;
  3802                           
  3803                           	psect	text32
  3804   002E9A                     __ptext32:
  3805                           	callstack 0
  3806   002E9A                     _PWM:
  3807                           	callstack 115
  3808   002E9A                     
  3809                           ;Labs/Lab06_PulseWidthModulation/PWM.c: 61:     if (labState == 0) {
  3810   002E9A  505D               	movf	_labState^(0+1280),w,c
  3811   002E9C  A4D8               	btfss	status,2,c
  3812   002E9E  EF53  F017         	goto	u1921
  3813   002EA2  EF55  F017         	goto	u1920
  3814   002EA6                     u1921:
  3815   002EA6  EF5D  F017         	goto	l3889
  3816   002EAA                     u1920:
  3817   002EAA  0E00               	movlw	0
  3818   002EAC  6EBE               	movwf	190,c	;volatile
  3819   002EAE                     
  3820                           ;Labs/Lab06_PulseWidthModulation/PWM.c: 63:         PWM_Output_D5_Enable();
  3821   002EAE  EC6E  F01C         	call	_PWM_Output_D5_Enable	;wreg free
  3822                           
  3823                           ;Labs/Lab06_PulseWidthModulation/PWM.c: 64:         TMR2_Start();
  3824   002EB2  ECEF  F01C         	call	_TMR2_Start	;wreg free
  3825   002EB6                     
  3826                           ;Labs/Lab06_PulseWidthModulation/PWM.c: 66:         labState = 1;
  3827   002EB6  0E01               	movlw	1
  3828   002EB8  6E5D               	movwf	_labState^(0+1280),c
  3829   002EBA                     l3889:
  3830                           
  3831                           ;Labs/Lab06_PulseWidthModulation/PWM.c: 69:     if (labState == 1) {
  3832   002EBA  045D               	decf	_labState^(0+1280),w,c
  3833   002EBC  A4D8               	btfss	status,2,c
  3834   002EBE  EF63  F017         	goto	u1931
  3835   002EC2  EF65  F017         	goto	u1930
  3836   002EC6                     u1931:
  3837   002EC6  EF86  F017         	goto	l3899
  3838   002ECA                     u1930:
  3839   002ECA                     
  3840                           ;Labs/Lab06_PulseWidthModulation/PWM.c: 70:         adcResult = ADCC_GetSingleConversion
      +                          (POT_CHANNEL) >> 4;
  3841   002ECA  0E00               	movlw	0
  3842   002ECC  ECA5  F01B         	call	_ADCC_GetSingleConversion
  3843   002ED0  0E04               	movlw	4
  3844   002ED2  6E47               	movwf	??_PWM^(0+1280),c
  3845   002ED4                     u1945:
  3846   002ED4  90D8               	bcf	status,0,c
  3847   002ED6  3204               	rrcf	(?_ADCC_GetSingleConversion+1)^(0+1280),f,c
  3848   002ED8  3203               	rrcf	?_ADCC_GetSingleConversion^(0+1280),f,c
  3849   002EDA  2E47               	decfsz	??_PWM^(0+1280),f,c
  3850   002EDC  EF6A  F017         	goto	u1945
  3851   002EE0  C503  F54E         	movff	?_ADCC_GetSingleConversion,_adcResult@PWM$F215
  3852   002EE4  C504  F54F         	movff	?_ADCC_GetSingleConversion+1,_adcResult@PWM$F215+1
  3853   002EE8                     
  3854                           ;Labs/Lab06_PulseWidthModulation/PWM.c: 72:         printf("ADC Result: %d\n\r", adcResu
      +                          lt);
  3855   002EE8  0E7F               	movlw	low STR_1
  3856   002EEA  6E41               	movwf	printf@fmt^(0+1280),c
  3857   002EEC  0E26               	movlw	high STR_1
  3858   002EEE  6E42               	movwf	(printf@fmt+1)^(0+1280),c
  3859   002EF0  C54E  F543         	movff	_adcResult@PWM$F215,?_printf+2
  3860   002EF4  C54F  F544         	movff	_adcResult@PWM$F215+1,?_printf+3
  3861   002EF8  ECFC  F01B         	call	_printf	;wreg free
  3862   002EFC                     
  3863                           ;Labs/Lab06_PulseWidthModulation/PWM.c: 73:         PWM3_16BIT_SetSlice1Output1DutyCycle
      +                          Register(adcResult);
  3864   002EFC  C54E  F503         	movff	_adcResult@PWM$F215,PWM3_16BIT_SetSlice1Output1DutyCycleRegister@registerValue
  3865   002F00  C54F  F504         	movff	_adcResult@PWM$F215+1,PWM3_16BIT_SetSlice1Output1DutyCycleRegister@registerValue+
      +                          1
  3866   002F04  ECE1  F01C         	call	_PWM3_16BIT_SetSlice1Output1DutyCycleRegister	;wreg free
  3867   002F08                     
  3868                           ;Labs/Lab06_PulseWidthModulation/PWM.c: 74:         PWM3_16BIT_LoadBufferRegisters();
  3869   002F08  ECF8  F01C         	call	_PWM3_16BIT_LoadBufferRegisters	;wreg free
  3870   002F0C                     l3899:
  3871                           
  3872                           ;Labs/Lab06_PulseWidthModulation/PWM.c: 77:     if (switchEvent) {
  3873   002F0C  505E               	movf	_switchEvent^(0+1280),w,c
  3874   002F0E  B4D8               	btfsc	status,2,c
  3875   002F10  EF8C  F017         	goto	u1951
  3876   002F14  EF8E  F017         	goto	u1950
  3877   002F18                     u1951:
  3878   002F18  EF94  F017         	goto	l189
  3879   002F1C                     u1950:
  3880   002F1C                     
  3881                           ;Labs/Lab06_PulseWidthModulation/PWM.c: 78:         TMR2_Stop();
  3882   002F1C  ECEC  F01C         	call	_TMR2_Stop	;wreg free
  3883   002F20                     
  3884                           ;Labs/Lab06_PulseWidthModulation/PWM.c: 79:         PWM_Output_D5_Disable();
  3885   002F20  EC7C  F01C         	call	_PWM_Output_D5_Disable	;wreg free
  3886                           
  3887                           ;Labs/Lab06_PulseWidthModulation/PWM.c: 80:         labState = 0;
  3888   002F24  0E00               	movlw	0
  3889   002F26  6E5D               	movwf	_labState^(0+1280),c
  3890   002F28                     l189:
  3891   002F28  0012               	return		;funcret
  3892   002F2A                     __end_of_PWM:
  3893                           	callstack 0
  3894                           
  3895 ;; *************** function _TMR2_Stop *****************
  3896 ;; Defined at:
  3897 ;;		line 98 in file "mcc_generated_files/timer/src/tmr2.c"
  3898 ;; Parameters:    Size  Location     Type
  3899 ;;		None
  3900 ;; Auto vars:     Size  Location     Type
  3901 ;;		None
  3902 ;; Return value:  Size  Location     Type
  3903 ;;                  1    wreg      void 
  3904 ;; Registers used:
  3905 ;;		None
  3906 ;; Tracked objects:
  3907 ;;		On entry : 0/0
  3908 ;;		On exit  : 0/0
  3909 ;;		Unchanged: 0/0
  3910 ;; Data sizes:     COMRAM   BANK5   BANK6   BANK7   BANK8   BANK9  BANK10  BANK11  BANK12  BANK13  BANK14  BANK15  BANK1
      +6  BANK17  BANK18  BANK19  BANK20  BANK21  BANK22  BANK23  BANK24  BANK25  BANK26  BANK27  BANK28  BANK29  BANK30  BANK3
      +1  BANK32  BANK33  BANK34  BANK35  BANK36
  3911 ;;      Params:         0       0       0       0       0       0       0       0       0       0       0       0       
      +0       0       0       0       0       0       0       0       0       0       0       0       0       0       0       
      +0       0       0       0       0       0
  3912 ;;      Locals:         0       0       0       0       0       0       0       0       0       0       0       0       
      +0       0       0       0       0       0       0       0       0       0       0       0       0       0       0       
      +0       0       0       0       0       0
  3913 ;;      Temps:          0       0       0       0       0       0       0       0       0       0       0       0       
      +0       0       0       0       0       0       0       0       0       0       0       0       0       0       0       
      +0       0       0       0       0       0
  3914 ;;      Totals:         0       0       0       0       0       0       0       0       0       0       0       0       
      +0       0       0       0       0       0       0       0       0       0       0       0       0       0       0       
      +0       0       0       0       0       0
  3915 ;;Total ram usage:        0 bytes
  3916 ;; Hardware stack levels used: 1
  3917 ;; Hardware stack levels required when called: 3
  3918 ;; This function calls:
  3919 ;;		Nothing
  3920 ;; This function is called by:
  3921 ;;		_PWM
  3922 ;; This function uses a non-reentrant model
  3923 ;;
  3924                           
  3925                           	psect	text33
  3926   0039D8                     __ptext33:
  3927                           	callstack 0
  3928   0039D8                     _TMR2_Stop:
  3929                           	callstack 122
  3930   0039D8                     
  3931                           ;mcc_generated_files/timer/src/tmr2.c: 101:     T2CONbits.TMR2ON = 0;
  3932   0039D8  0103               	movlb	3	; () banked
  3933   0039DA  9F24               	bcf	36,7,b	;volatile
  3934   0039DC                     
  3935                           ; BSR set to: 3
  3936   0039DC  0012               	return		;funcret
  3937   0039DE                     __end_of_TMR2_Stop:
  3938                           	callstack 0
  3939                           
  3940 ;; *************** function _TMR2_Start *****************
  3941 ;; Defined at:
  3942 ;;		line 92 in file "mcc_generated_files/timer/src/tmr2.c"
  3943 ;; Parameters:    Size  Location     Type
  3944 ;;		None
  3945 ;; Auto vars:     Size  Location     Type
  3946 ;;		None
  3947 ;; Return value:  Size  Location     Type
  3948 ;;                  1    wreg      void 
  3949 ;; Registers used:
  3950 ;;		None
  3951 ;; Tracked objects:
  3952 ;;		On entry : 0/0
  3953 ;;		On exit  : 0/0
  3954 ;;		Unchanged: 0/0
  3955 ;; Data sizes:     COMRAM   BANK5   BANK6   BANK7   BANK8   BANK9  BANK10  BANK11  BANK12  BANK13  BANK14  BANK15  BANK1
      +6  BANK17  BANK18  BANK19  BANK20  BANK21  BANK22  BANK23  BANK24  BANK25  BANK26  BANK27  BANK28  BANK29  BANK30  BANK3
      +1  BANK32  BANK33  BANK34  BANK35  BANK36
  3956 ;;      Params:         0       0       0       0       0       0       0       0       0       0       0       0       
      +0       0       0       0       0       0       0       0       0       0       0       0       0       0       0       
      +0       0       0       0       0       0
  3957 ;;      Locals:         0       0       0       0       0       0       0       0       0       0       0       0       
      +0       0       0       0       0       0       0       0       0       0       0       0       0       0       0       
      +0       0       0       0       0       0
  3958 ;;      Temps:          0       0       0       0       0       0       0       0       0       0       0       0       
      +0       0       0       0       0       0       0       0       0       0       0       0       0       0       0       
      +0       0       0       0       0       0
  3959 ;;      Totals:         0       0       0       0       0       0       0       0       0       0       0       0       
      +0       0       0       0       0       0       0       0       0       0       0       0       0       0       0       
      +0       0       0       0       0       0
  3960 ;;Total ram usage:        0 bytes
  3961 ;; Hardware stack levels used: 1
  3962 ;; Hardware stack levels required when called: 3
  3963 ;; This function calls:
  3964 ;;		Nothing
  3965 ;; This function is called by:
  3966 ;;		_PWM
  3967 ;; This function uses a non-reentrant model
  3968 ;;
  3969                           
  3970                           	psect	text34
  3971   0039DE                     __ptext34:
  3972                           	callstack 0
  3973   0039DE                     _TMR2_Start:
  3974                           	callstack 122
  3975   0039DE                     
  3976                           ;mcc_generated_files/timer/src/tmr2.c: 95:     T2CONbits.TMR2ON = 1;
  3977   0039DE  0103               	movlb	3	; () banked
  3978   0039E0  8F24               	bsf	36,7,b	;volatile
  3979   0039E2                     
  3980                           ; BSR set to: 3
  3981   0039E2  0012               	return		;funcret
  3982   0039E4                     __end_of_TMR2_Start:
  3983                           	callstack 0
  3984                           
  3985 ;; *************** function _PWM_Output_D5_Enable *****************
  3986 ;; Defined at:
  3987 ;;		line 84 in file "Labs/Lab06_PulseWidthModulation/PWM.c"
  3988 ;; Parameters:    Size  Location     Type
  3989 ;;		None
  3990 ;; Auto vars:     Size  Location     Type
  3991 ;;		None
  3992 ;; Return value:  Size  Location     Type
  3993 ;;                  1    wreg      void 
  3994 ;; Registers used:
  3995 ;;		wreg, status,2
  3996 ;; Tracked objects:
  3997 ;;		On entry : 0/0
  3998 ;;		On exit  : 0/0
  3999 ;;		Unchanged: 0/0
  4000 ;; Data sizes:     COMRAM   BANK5   BANK6   BANK7   BANK8   BANK9  BANK10  BANK11  BANK12  BANK13  BANK14  BANK15  BANK1
      +6  BANK17  BANK18  BANK19  BANK20  BANK21  BANK22  BANK23  BANK24  BANK25  BANK26  BANK27  BANK28  BANK29  BANK30  BANK3
      +1  BANK32  BANK33  BANK34  BANK35  BANK36
  4001 ;;      Params:         0       0       0       0       0       0       0       0       0       0       0       0       
      +0       0       0       0       0       0       0       0       0       0       0       0       0       0       0       
      +0       0       0       0       0       0
  4002 ;;      Locals:         0       0       0       0       0       0       0       0       0       0       0       0       
      +0       0       0       0       0       0       0       0       0       0       0       0       0       0       0       
      +0       0       0       0       0       0
  4003 ;;      Temps:          0       0       0       0       0       0       0       0       0       0       0       0       
      +0       0       0       0       0       0       0       0       0       0       0       0       0       0       0       
      +0       0       0       0       0       0
  4004 ;;      Totals:         0       0       0       0       0       0       0       0       0       0       0       0       
      +0       0       0       0       0       0       0       0       0       0       0       0       0       0       0       
      +0       0       0       0       0       0
  4005 ;;Total ram usage:        0 bytes
  4006 ;; Hardware stack levels used: 1
  4007 ;; Hardware stack levels required when called: 3
  4008 ;; This function calls:
  4009 ;;		Nothing
  4010 ;; This function is called by:
  4011 ;;		_PWM
  4012 ;; This function uses a non-reentrant model
  4013 ;;
  4014                           
  4015                           	psect	text35
  4016   0038DC                     __ptext35:
  4017                           	callstack 0
  4018   0038DC                     _PWM_Output_D5_Enable:
  4019                           	callstack 122
  4020   0038DC                     
  4021                           ;Labs/Lab06_PulseWidthModulation/PWM.c: 85:     PPSLOCK = 0x55;
  4022   0038DC  0E55               	movlw	85
  4023   0038DE  0102               	movlb	2	; () banked
  4024   0038E0  6F00               	movwf	0,b	;volsfr
  4025                           
  4026                           ;Labs/Lab06_PulseWidthModulation/PWM.c: 86:     PPSLOCK = 0xAA;
  4027   0038E2  0EAA               	movlw	170
  4028   0038E4  6F00               	movwf	0,b	;volsfr
  4029   0038E6                     
  4030                           ; BSR set to: 2
  4031                           ;Labs/Lab06_PulseWidthModulation/PWM.c: 87:     PPSLOCKbits.PPSLOCKED = 0x00;
  4032   0038E6  9100               	bcf	0,0,b	;volsfr
  4033                           
  4034                           ;Labs/Lab06_PulseWidthModulation/PWM.c: 90:     RA7PPS = 0x01;
  4035   0038E8  0E01               	movlw	1
  4036   0038EA  6F08               	movwf	8,b	;volatile
  4037                           
  4038                           ;Labs/Lab06_PulseWidthModulation/PWM.c: 92:     PPSLOCK = 0x55;
  4039   0038EC  0E55               	movlw	85
  4040   0038EE  6F00               	movwf	0,b	;volsfr
  4041                           
  4042                           ;Labs/Lab06_PulseWidthModulation/PWM.c: 93:     PPSLOCK = 0xAA;
  4043   0038F0  0EAA               	movlw	170
  4044   0038F2  6F00               	movwf	0,b	;volsfr
  4045   0038F4                     
  4046                           ; BSR set to: 2
  4047                           ;Labs/Lab06_PulseWidthModulation/PWM.c: 94:     PPSLOCKbits.PPSLOCKED = 0x01;
  4048   0038F4  8100               	bsf	0,0,b	;volsfr
  4049   0038F6                     
  4050                           ; BSR set to: 2
  4051   0038F6  0012               	return		;funcret
  4052   0038F8                     __end_of_PWM_Output_D5_Enable:
  4053                           	callstack 0
  4054                           
  4055 ;; *************** function _PWM_Output_D5_Disable *****************
  4056 ;; Defined at:
  4057 ;;		line 97 in file "Labs/Lab06_PulseWidthModulation/PWM.c"
  4058 ;; Parameters:    Size  Location     Type
  4059 ;;		None
  4060 ;; Auto vars:     Size  Location     Type
  4061 ;;		None
  4062 ;; Return value:  Size  Location     Type
  4063 ;;                  1    wreg      void 
  4064 ;; Registers used:
  4065 ;;		wreg, status,2
  4066 ;; Tracked objects:
  4067 ;;		On entry : 0/0
  4068 ;;		On exit  : 0/0
  4069 ;;		Unchanged: 0/0
  4070 ;; Data sizes:     COMRAM   BANK5   BANK6   BANK7   BANK8   BANK9  BANK10  BANK11  BANK12  BANK13  BANK14  BANK15  BANK1
      +6  BANK17  BANK18  BANK19  BANK20  BANK21  BANK22  BANK23  BANK24  BANK25  BANK26  BANK27  BANK28  BANK29  BANK30  BANK3
      +1  BANK32  BANK33  BANK34  BANK35  BANK36
  4071 ;;      Params:         0       0       0       0       0       0       0       0       0       0       0       0       
      +0       0       0       0       0       0       0       0       0       0       0       0       0       0       0       
      +0       0       0       0       0       0
  4072 ;;      Locals:         0       0       0       0       0       0       0       0       0       0       0       0       
      +0       0       0       0       0       0       0       0       0       0       0       0       0       0       0       
      +0       0       0       0       0       0
  4073 ;;      Temps:          0       0       0       0       0       0       0       0       0       0       0       0       
      +0       0       0       0       0       0       0       0       0       0       0       0       0       0       0       
      +0       0       0       0       0       0
  4074 ;;      Totals:         0       0       0       0       0       0       0       0       0       0       0       0       
      +0       0       0       0       0       0       0       0       0       0       0       0       0       0       0       
      +0       0       0       0       0       0
  4075 ;;Total ram usage:        0 bytes
  4076 ;; Hardware stack levels used: 1
  4077 ;; Hardware stack levels required when called: 3
  4078 ;; This function calls:
  4079 ;;		Nothing
  4080 ;; This function is called by:
  4081 ;;		_PWM
  4082 ;; This function uses a non-reentrant model
  4083 ;;
  4084                           
  4085                           	psect	text36
  4086   0038F8                     __ptext36:
  4087                           	callstack 0
  4088   0038F8                     _PWM_Output_D5_Disable:
  4089                           	callstack 122
  4090   0038F8                     
  4091                           ;Labs/Lab06_PulseWidthModulation/PWM.c: 98:     PPSLOCK = 0x55;
  4092   0038F8  0E55               	movlw	85
  4093   0038FA  0102               	movlb	2	; () banked
  4094   0038FC  6F00               	movwf	0,b	;volsfr
  4095                           
  4096                           ;Labs/Lab06_PulseWidthModulation/PWM.c: 99:     PPSLOCK = 0xAA;
  4097   0038FE  0EAA               	movlw	170
  4098   003900  6F00               	movwf	0,b	;volsfr
  4099   003902                     
  4100                           ; BSR set to: 2
  4101                           ;Labs/Lab06_PulseWidthModulation/PWM.c: 100:     PPSLOCKbits.PPSLOCKED = 0x00;
  4102   003902  9100               	bcf	0,0,b	;volsfr
  4103                           
  4104                           ;Labs/Lab06_PulseWidthModulation/PWM.c: 103:     RA7PPS = 0x00;
  4105   003904  0E00               	movlw	0
  4106   003906  6F08               	movwf	8,b	;volatile
  4107                           
  4108                           ;Labs/Lab06_PulseWidthModulation/PWM.c: 105:     PPSLOCK = 0x55;
  4109   003908  0E55               	movlw	85
  4110   00390A  6F00               	movwf	0,b	;volsfr
  4111                           
  4112                           ;Labs/Lab06_PulseWidthModulation/PWM.c: 106:     PPSLOCK = 0xAA;
  4113   00390C  0EAA               	movlw	170
  4114   00390E  6F00               	movwf	0,b	;volsfr
  4115   003910                     
  4116                           ; BSR set to: 2
  4117                           ;Labs/Lab06_PulseWidthModulation/PWM.c: 107:     PPSLOCKbits.PPSLOCKED = 0x01;
  4118   003910  8100               	bsf	0,0,b	;volsfr
  4119   003912                     
  4120                           ; BSR set to: 2
  4121   003912  0012               	return		;funcret
  4122   003914                     __end_of_PWM_Output_D5_Disable:
  4123                           	callstack 0
  4124                           
  4125 ;; *************** function _PWM3_16BIT_SetSlice1Output1DutyCycleRegister *****************
  4126 ;; Defined at:
  4127 ;;		line 137 in file "mcc_generated_files/pwm/src/pwm3_16bit.c"
  4128 ;; Parameters:    Size  Location     Type
  4129 ;;  registerValu    2    2[COMRAM] unsigned short 
  4130 ;; Auto vars:     Size  Location     Type
  4131 ;;		None
  4132 ;; Return value:  Size  Location     Type
  4133 ;;                  1    wreg      void 
  4134 ;; Registers used:
  4135 ;;		wreg, status,2
  4136 ;; Tracked objects:
  4137 ;;		On entry : 0/0
  4138 ;;		On exit  : 0/0
  4139 ;;		Unchanged: 0/0
  4140 ;; Data sizes:     COMRAM   BANK5   BANK6   BANK7   BANK8   BANK9  BANK10  BANK11  BANK12  BANK13  BANK14  BANK15  BANK1
      +6  BANK17  BANK18  BANK19  BANK20  BANK21  BANK22  BANK23  BANK24  BANK25  BANK26  BANK27  BANK28  BANK29  BANK30  BANK3
      +1  BANK32  BANK33  BANK34  BANK35  BANK36
  4141 ;;      Params:         2       0       0       0       0       0       0       0       0       0       0       0       
      +0       0       0       0       0       0       0       0       0       0       0       0       0       0       0       
      +0       0       0       0       0       0
  4142 ;;      Locals:         0       0       0       0       0       0       0       0       0       0       0       0       
      +0       0       0       0       0       0       0       0       0       0       0       0       0       0       0       
      +0       0       0       0       0       0
  4143 ;;      Temps:          0       0       0       0       0       0       0       0       0       0       0       0       
      +0       0       0       0       0       0       0       0       0       0       0       0       0       0       0       
      +0       0       0       0       0       0
  4144 ;;      Totals:         2       0       0       0       0       0       0       0       0       0       0       0       
      +0       0       0       0       0       0       0       0       0       0       0       0       0       0       0       
      +0       0       0       0       0       0
  4145 ;;Total ram usage:        2 bytes
  4146 ;; Hardware stack levels used: 1
  4147 ;; Hardware stack levels required when called: 3
  4148 ;; This function calls:
  4149 ;;		Nothing
  4150 ;; This function is called by:
  4151 ;;		_PWM
  4152 ;; This function uses a non-reentrant model
  4153 ;;
  4154                           
  4155                           	psect	text37
  4156   0039C2                     __ptext37:
  4157                           	callstack 0
  4158   0039C2                     _PWM3_16BIT_SetSlice1Output1DutyCycleRegister:
  4159                           	callstack 122
  4160   0039C2                     
  4161                           ;mcc_generated_files/pwm/src/pwm3_16bit.c: 137: void PWM3_16BIT_SetSlice1Output1DutyCycl
      +                          eRegister(uint16_t registerValue);mcc_generated_files/pwm/src/pwm3_16bit.c: 138: {;mcc_g
      +                          enerated_files/pwm/src/pwm3_16bit.c: 139:     PWM3S1P1L = (uint8_t)(registerValue);
  4162   0039C2  C503  F489         	movff	PWM3_16BIT_SetSlice1Output1DutyCycleRegister@registerValue,1161	;volatile
  4163   0039C6                     
  4164                           ;mcc_generated_files/pwm/src/pwm3_16bit.c: 140:     PWM3S1P1H = (uint8_t)(registerValue 
      +                          >> 8);
  4165   0039C6  5004               	movf	(PWM3_16BIT_SetSlice1Output1DutyCycleRegister@registerValue+1)^(0+1280),w,c
  4166   0039C8  6E8A               	movwf	138,c	;volatile
  4167   0039CA  0012               	return		;funcret
  4168   0039CC                     __end_of_PWM3_16BIT_SetSlice1Output1DutyCycleRegister:
  4169                           	callstack 0
  4170                           
  4171 ;; *************** function _PWM3_16BIT_LoadBufferRegisters *****************
  4172 ;; Defined at:
  4173 ;;		line 149 in file "mcc_generated_files/pwm/src/pwm3_16bit.c"
  4174 ;; Parameters:    Size  Location     Type
  4175 ;;		None
  4176 ;; Auto vars:     Size  Location     Type
  4177 ;;		None
  4178 ;; Return value:  Size  Location     Type
  4179 ;;                  1    wreg      void 
  4180 ;; Registers used:
  4181 ;;		None
  4182 ;; Tracked objects:
  4183 ;;		On entry : 0/0
  4184 ;;		On exit  : 0/0
  4185 ;;		Unchanged: 0/0
  4186 ;; Data sizes:     COMRAM   BANK5   BANK6   BANK7   BANK8   BANK9  BANK10  BANK11  BANK12  BANK13  BANK14  BANK15  BANK1
      +6  BANK17  BANK18  BANK19  BANK20  BANK21  BANK22  BANK23  BANK24  BANK25  BANK26  BANK27  BANK28  BANK29  BANK30  BANK3
      +1  BANK32  BANK33  BANK34  BANK35  BANK36
  4187 ;;      Params:         0       0       0       0       0       0       0       0       0       0       0       0       
      +0       0       0       0       0       0       0       0       0       0       0       0       0       0       0       
      +0       0       0       0       0       0
  4188 ;;      Locals:         0       0       0       0       0       0       0       0       0       0       0       0       
      +0       0       0       0       0       0       0       0       0       0       0       0       0       0       0       
      +0       0       0       0       0       0
  4189 ;;      Temps:          0       0       0       0       0       0       0       0       0       0       0       0       
      +0       0       0       0       0       0       0       0       0       0       0       0       0       0       0       
      +0       0       0       0       0       0
  4190 ;;      Totals:         0       0       0       0       0       0       0       0       0       0       0       0       
      +0       0       0       0       0       0       0       0       0       0       0       0       0       0       0       
      +0       0       0       0       0       0
  4191 ;;Total ram usage:        0 bytes
  4192 ;; Hardware stack levels used: 1
  4193 ;; Hardware stack levels required when called: 3
  4194 ;; This function calls:
  4195 ;;		Nothing
  4196 ;; This function is called by:
  4197 ;;		_PWM
  4198 ;; This function uses a non-reentrant model
  4199 ;;
  4200                           
  4201                           	psect	text38
  4202   0039F0                     __ptext38:
  4203                           	callstack 0
  4204   0039F0                     _PWM3_16BIT_LoadBufferRegisters:
  4205                           	callstack 122
  4206   0039F0                     
  4207                           ;mcc_generated_files/pwm/src/pwm3_16bit.c: 152:     PWM3CONbits.LD = 1;
  4208   0039F0  8487               	bsf	135,2,c	;volatile
  4209   0039F2  0012               	return		;funcret
  4210   0039F4                     __end_of_PWM3_16BIT_LoadBufferRegisters:
  4211                           	callstack 0
  4212                           
  4213 ;; *************** function _Interrupts *****************
  4214 ;; Defined at:
  4215 ;;		line 59 in file "Labs/Lab08_Interrupts/Interrupts.c"
  4216 ;; Parameters:    Size  Location     Type
  4217 ;;		None
  4218 ;; Auto vars:     Size  Location     Type
  4219 ;;		None
  4220 ;; Return value:  Size  Location     Type
  4221 ;;                  1    wreg      void 
  4222 ;; Registers used:
  4223 ;;		wreg, status,2, status,0, cstack
  4224 ;; Tracked objects:
  4225 ;;		On entry : 0/0
  4226 ;;		On exit  : 0/0
  4227 ;;		Unchanged: 0/0
  4228 ;; Data sizes:     COMRAM   BANK5   BANK6   BANK7   BANK8   BANK9  BANK10  BANK11  BANK12  BANK13  BANK14  BANK15  BANK1
      +6  BANK17  BANK18  BANK19  BANK20  BANK21  BANK22  BANK23  BANK24  BANK25  BANK26  BANK27  BANK28  BANK29  BANK30  BANK3
      +1  BANK32  BANK33  BANK34  BANK35  BANK36
  4229 ;;      Params:         0       0       0       0       0       0       0       0       0       0       0       0       
      +0       0       0       0       0       0       0       0       0       0       0       0       0       0       0       
      +0       0       0       0       0       0
  4230 ;;      Locals:         0       0       0       0       0       0       0       0       0       0       0       0       
      +0       0       0       0       0       0       0       0       0       0       0       0       0       0       0       
      +0       0       0       0       0       0
  4231 ;;      Temps:          0       0       0       0       0       0       0       0       0       0       0       0       
      +0       0       0       0       0       0       0       0       0       0       0       0       0       0       0       
      +0       0       0       0       0       0
  4232 ;;      Totals:         0       0       0       0       0       0       0       0       0       0       0       0       
      +0       0       0       0       0       0       0       0       0       0       0       0       0       0       0       
      +0       0       0       0       0       0
  4233 ;;Total ram usage:        0 bytes
  4234 ;; Hardware stack levels used: 1
  4235 ;; Hardware stack levels required when called: 4
  4236 ;; This function calls:
  4237 ;;		_TMR0_OverflowCallbackRegister
  4238 ;; This function is called by:
  4239 ;;		_main
  4240 ;; This function uses a non-reentrant model
  4241 ;;
  4242                           
  4243                           	psect	text39
  4244   003508                     __ptext39:
  4245                           	callstack 0
  4246   003508                     _Interrupts:
  4247                           	callstack 122
  4248   003508                     
  4249                           ;Labs/Lab08_Interrupts/Interrupts.c: 61:     if (labState == 0) {
  4250   003508  505D               	movf	_labState^(0+1280),w,c
  4251   00350A  A4D8               	btfss	status,2,c
  4252   00350C  EF8A  F01A         	goto	u2011
  4253   003510  EF8C  F01A         	goto	u2010
  4254   003514                     u2011:
  4255   003514  EF9D  F01A         	goto	l3953
  4256   003518                     u2010:
  4257   003518  0E00               	movlw	0
  4258   00351A  6EBE               	movwf	190,c	;volatile
  4259   00351C  88BE               	bsf	190,4,c	;volatile
  4260   00351E                     
  4261                           ;Labs/Lab08_Interrupts/Interrupts.c: 65:         rotateReg = 1;
  4262   00351E  0E01               	movlw	1
  4263   003520  6E55               	movwf	_rotateReg@Interrupts$F299^(0+1280),c
  4264   003522                     
  4265                           ;Labs/Lab08_Interrupts/Interrupts.c: 67:         (INTCON0bits.GIE = 1);
  4266   003522  8ED6               	bsf	214,7,c	;volatile
  4267   003524  8EA1               	bsf	1185,7,c	;volatile
  4268   003526                     
  4269                           ;Labs/Lab08_Interrupts/Interrupts.c: 70:         TMR0_OverflowCallbackRegister(LAB_ISR);
  4270   003526  0E84               	movlw	low _LAB_ISR
  4271   003528  6E03               	movwf	TMR0_OverflowCallbackRegister@CallbackHandler^(0+1280),c
  4272   00352A  0E38               	movlw	high _LAB_ISR
  4273   00352C  6E04               	movwf	(TMR0_OverflowCallbackRegister@CallbackHandler+1)^(0+1280),c
  4274   00352E  0E00               	movlw	low (_LAB_ISR shr (0+16))
  4275   003530  6E05               	movwf	(TMR0_OverflowCallbackRegister@CallbackHandler+2)^(0+1280),c
  4276   003532  ECD3  F01C         	call	_TMR0_OverflowCallbackRegister	;wreg free
  4277   003536                     
  4278                           ;Labs/Lab08_Interrupts/Interrupts.c: 72:         labState = 1;
  4279   003536  0E01               	movlw	1
  4280   003538  6E5D               	movwf	_labState^(0+1280),c
  4281   00353A                     l3953:
  4282                           
  4283                           ;Labs/Lab08_Interrupts/Interrupts.c: 79:     if (switchEvent) {
  4284   00353A  505E               	movf	_switchEvent^(0+1280),w,c
  4285   00353C  B4D8               	btfsc	status,2,c
  4286   00353E  EFA3  F01A         	goto	u2021
  4287   003542  EFA5  F01A         	goto	u2020
  4288   003546                     u2021:
  4289   003546  EFA9  F01A         	goto	l269
  4290   00354A                     u2020:
  4291   00354A  9EA1               	bcf	1185,7,c	;volatile
  4292   00354C                     
  4293                           ;Labs/Lab08_Interrupts/Interrupts.c: 82:         (INTCON0bits.GIE = 0);
  4294   00354C  9ED6               	bcf	214,7,c	;volatile
  4295   00354E                     
  4296                           ;Labs/Lab08_Interrupts/Interrupts.c: 84:         labState = 0;
  4297   00354E  0E00               	movlw	0
  4298   003550  6E5D               	movwf	_labState^(0+1280),c
  4299   003552                     l269:
  4300   003552  0012               	return		;funcret
  4301   003554                     __end_of_Interrupts:
  4302                           	callstack 0
  4303                           
  4304 ;; *************** function _TMR0_OverflowCallbackRegister *****************
  4305 ;; Defined at:
  4306 ;;		line 116 in file "mcc_generated_files/timer/src/tmr0.c"
  4307 ;; Parameters:    Size  Location     Type
  4308 ;;  CallbackHand    3    2[COMRAM] PTR FTN()void 
  4309 ;;		 -> TMR2_DefaultOverflowCallback(1), TMR1_DefaultOverflowCallback(1), TMR0_DefaultOverflowCallback(1), LAB_ISR(1), 
  4310 ;; Auto vars:     Size  Location     Type
  4311 ;;		None
  4312 ;; Return value:  Size  Location     Type
  4313 ;;                  1    wreg      void 
  4314 ;; Registers used:
  4315 ;;		wreg, status,2, status,0
  4316 ;; Tracked objects:
  4317 ;;		On entry : 0/0
  4318 ;;		On exit  : 0/0
  4319 ;;		Unchanged: 0/0
  4320 ;; Data sizes:     COMRAM   BANK5   BANK6   BANK7   BANK8   BANK9  BANK10  BANK11  BANK12  BANK13  BANK14  BANK15  BANK1
      +6  BANK17  BANK18  BANK19  BANK20  BANK21  BANK22  BANK23  BANK24  BANK25  BANK26  BANK27  BANK28  BANK29  BANK30  BANK3
      +1  BANK32  BANK33  BANK34  BANK35  BANK36
  4321 ;;      Params:         3       0       0       0       0       0       0       0       0       0       0       0       
      +0       0       0       0       0       0       0       0       0       0       0       0       0       0       0       
      +0       0       0       0       0       0
  4322 ;;      Locals:         0       0       0       0       0       0       0       0       0       0       0       0       
      +0       0       0       0       0       0       0       0       0       0       0       0       0       0       0       
      +0       0       0       0       0       0
  4323 ;;      Temps:          0       0       0       0       0       0       0       0       0       0       0       0       
      +0       0       0       0       0       0       0       0       0       0       0       0       0       0       0       
      +0       0       0       0       0       0
  4324 ;;      Totals:         3       0       0       0       0       0       0       0       0       0       0       0       
      +0       0       0       0       0       0       0       0       0       0       0       0       0       0       0       
      +0       0       0       0       0       0
  4325 ;;Total ram usage:        3 bytes
  4326 ;; Hardware stack levels used: 1
  4327 ;; Hardware stack levels required when called: 3
  4328 ;; This function calls:
  4329 ;;		Nothing
  4330 ;; This function is called by:
  4331 ;;		_Interrupts
  4332 ;;		_TMR0_Initialize
  4333 ;; This function uses a non-reentrant model
  4334 ;;
  4335                           
  4336                           	psect	text40
  4337   0039A6                     __ptext40:
  4338                           	callstack 0
  4339   0039A6                     _TMR0_OverflowCallbackRegister:
  4340                           	callstack 121
  4341   0039A6                     
  4342                           ;mcc_generated_files/timer/src/tmr0.c: 116: void TMR0_OverflowCallbackRegister(void (* C
      +                          allbackHandler)(void));mcc_generated_files/timer/src/tmr0.c: 117: {;mcc_generated_files/
      +                          timer/src/tmr0.c: 118:     TMR0_OverflowCallback = CallbackHandler;
  4343   0039A6  C503  F5A4         	movff	TMR0_OverflowCallbackRegister@CallbackHandler,_TMR0_OverflowCallback
  4344   0039AA  C504  F5A5         	movff	TMR0_OverflowCallbackRegister@CallbackHandler+1,_TMR0_OverflowCallback+1
  4345   0039AE  C505  F5A6         	movff	TMR0_OverflowCallbackRegister@CallbackHandler+2,_TMR0_OverflowCallback+2
  4346   0039B2  0012               	return		;funcret
  4347   0039B4                     __end_of_TMR0_OverflowCallbackRegister:
  4348                           	callstack 0
  4349                           
  4350 ;; *************** function _HelloWorld *****************
  4351 ;; Defined at:
  4352 ;;		line 50 in file "Labs/Lab01_HelloWorld/HelloWorld.c"
  4353 ;; Parameters:    Size  Location     Type
  4354 ;;		None
  4355 ;; Auto vars:     Size  Location     Type
  4356 ;;		None
  4357 ;; Return value:  Size  Location     Type
  4358 ;;                  1    wreg      void 
  4359 ;; Registers used:
  4360 ;;		wreg, status,2, status,0
  4361 ;; Tracked objects:
  4362 ;;		On entry : 0/0
  4363 ;;		On exit  : 0/0
  4364 ;;		Unchanged: 0/0
  4365 ;; Data sizes:     COMRAM   BANK5   BANK6   BANK7   BANK8   BANK9  BANK10  BANK11  BANK12  BANK13  BANK14  BANK15  BANK1
      +6  BANK17  BANK18  BANK19  BANK20  BANK21  BANK22  BANK23  BANK24  BANK25  BANK26  BANK27  BANK28  BANK29  BANK30  BANK3
      +1  BANK32  BANK33  BANK34  BANK35  BANK36
  4366 ;;      Params:         0       0       0       0       0       0       0       0       0       0       0       0       
      +0       0       0       0       0       0       0       0       0       0       0       0       0       0       0       
      +0       0       0       0       0       0
  4367 ;;      Locals:         0       0       0       0       0       0       0       0       0       0       0       0       
      +0       0       0       0       0       0       0       0       0       0       0       0       0       0       0       
      +0       0       0       0       0       0
  4368 ;;      Temps:          0       0       0       0       0       0       0       0       0       0       0       0       
      +0       0       0       0       0       0       0       0       0       0       0       0       0       0       0       
      +0       0       0       0       0       0
  4369 ;;      Totals:         0       0       0       0       0       0       0       0       0       0       0       0       
      +0       0       0       0       0       0       0       0       0       0       0       0       0       0       0       
      +0       0       0       0       0       0
  4370 ;;Total ram usage:        0 bytes
  4371 ;; Hardware stack levels used: 1
  4372 ;; Hardware stack levels required when called: 3
  4373 ;; This function calls:
  4374 ;;		Nothing
  4375 ;; This function is called by:
  4376 ;;		_main
  4377 ;; This function uses a non-reentrant model
  4378 ;;
  4379                           
  4380                           	psect	text41
  4381   0035D8                     __ptext41:
  4382                           	callstack 0
  4383   0035D8                     _HelloWorld:
  4384                           	callstack 123
  4385   0035D8                     
  4386                           ;Labs/Lab01_HelloWorld/HelloWorld.c: 51:     if (labState == 0) {
  4387   0035D8  505D               	movf	_labState^(0+1280),w,c
  4388   0035DA  A4D8               	btfss	status,2,c
  4389   0035DC  EFF2  F01A         	goto	u431
  4390   0035E0  EFF4  F01A         	goto	u430
  4391   0035E4                     u431:
  4392   0035E4  EFF8  F01A         	goto	l2681
  4393   0035E8                     u430:
  4394   0035E8  0E00               	movlw	0
  4395   0035EA  6EBE               	movwf	190,c	;volatile
  4396   0035EC                     
  4397                           ;Labs/Lab01_HelloWorld/HelloWorld.c: 54:         labState = 1;
  4398   0035EC  0E01               	movlw	1
  4399   0035EE  6E5D               	movwf	_labState^(0+1280),c
  4400   0035F0                     l2681:
  4401                           
  4402                           ;Labs/Lab01_HelloWorld/HelloWorld.c: 57:     if (labState == 1) {
  4403   0035F0  045D               	decf	_labState^(0+1280),w,c
  4404   0035F2  A4D8               	btfss	status,2,c
  4405   0035F4  EFFE  F01A         	goto	u441
  4406   0035F8  EF00  F01B         	goto	u440
  4407   0035FC                     u441:
  4408   0035FC  EF01  F01B         	goto	l2683
  4409   003600                     u440:
  4410   003600  88BE               	bsf	190,4,c	;volatile
  4411   003602                     l2683:
  4412                           
  4413                           ;Labs/Lab01_HelloWorld/HelloWorld.c: 61:     if (switchEvent) {
  4414   003602  505E               	movf	_switchEvent^(0+1280),w,c
  4415   003604  B4D8               	btfsc	status,2,c
  4416   003606  EF07  F01B         	goto	u451
  4417   00360A  EF09  F01B         	goto	u450
  4418   00360E                     u451:
  4419   00360E  EF0B  F01B         	goto	l22
  4420   003612                     u450:
  4421   003612                     
  4422                           ;Labs/Lab01_HelloWorld/HelloWorld.c: 62:         labState = 0;
  4423   003612  0E00               	movlw	0
  4424   003614  6E5D               	movwf	_labState^(0+1280),c
  4425   003616                     l22:
  4426   003616  0012               	return		;funcret
  4427   003618                     __end_of_HelloWorld:
  4428                           	callstack 0
  4429                           
  4430 ;; *************** function _EEPROM *****************
  4431 ;; Defined at:
  4432 ;;		line 60 in file "Labs/Lab10_EEPROM/EEPROM.c"
  4433 ;; Parameters:    Size  Location     Type
  4434 ;;		None
  4435 ;; Auto vars:     Size  Location     Type
  4436 ;;		None
  4437 ;; Return value:  Size  Location     Type
  4438 ;;                  1    wreg      void 
  4439 ;; Registers used:
  4440 ;;		wreg, status,2, status,0, cstack
  4441 ;; Tracked objects:
  4442 ;;		On entry : 0/0
  4443 ;;		On exit  : 0/0
  4444 ;;		Unchanged: 0/0
  4445 ;; Data sizes:     COMRAM   BANK5   BANK6   BANK7   BANK8   BANK9  BANK10  BANK11  BANK12  BANK13  BANK14  BANK15  BANK1
      +6  BANK17  BANK18  BANK19  BANK20  BANK21  BANK22  BANK23  BANK24  BANK25  BANK26  BANK27  BANK28  BANK29  BANK30  BANK3
      +1  BANK32  BANK33  BANK34  BANK35  BANK36
  4446 ;;      Params:         0       0       0       0       0       0       0       0       0       0       0       0       
      +0       0       0       0       0       0       0       0       0       0       0       0       0       0       0       
      +0       0       0       0       0       0
  4447 ;;      Locals:         0       0       0       0       0       0       0       0       0       0       0       0       
      +0       0       0       0       0       0       0       0       0       0       0       0       0       0       0       
      +0       0       0       0       0       0
  4448 ;;      Temps:          1       0       0       0       0       0       0       0       0       0       0       0       
      +0       0       0       0       0       0       0       0       0       0       0       0       0       0       0       
      +0       0       0       0       0       0
  4449 ;;      Totals:         1       0       0       0       0       0       0       0       0       0       0       0       
      +0       0       0       0       0       0       0       0       0       0       0       0       0       0       0       
      +0       0       0       0       0       0
  4450 ;;Total ram usage:        1 bytes
  4451 ;; Hardware stack levels used: 1
  4452 ;; Hardware stack levels required when called: 4
  4453 ;; This function calls:
  4454 ;;		_ADCC_GetSingleConversion
  4455 ;;		_EEPROM_Read
  4456 ;;		_EEPROM_Write
  4457 ;; This function is called by:
  4458 ;;		_main
  4459 ;; This function uses a non-reentrant model
  4460 ;;
  4461                           
  4462                           	psect	text42
  4463   0030C4                     __ptext42:
  4464                           	callstack 0
  4465   0030C4                     _EEPROM:
  4466                           	callstack 122
  4467   0030C4                     
  4468                           ;Labs/Lab10_EEPROM/EEPROM.c: 62:     if (labState == 0) {
  4469   0030C4  505D               	movf	_labState^(0+1280),w,c
  4470   0030C6  A4D8               	btfss	status,2,c
  4471   0030C8  EF68  F018         	goto	u2031
  4472   0030CC  EF6A  F018         	goto	u2030
  4473   0030D0                     u2031:
  4474   0030D0  EF6E  F018         	goto	l3961
  4475   0030D4                     u2030:
  4476   0030D4  0E00               	movlw	0
  4477   0030D6  6EBE               	movwf	190,c	;volatile
  4478   0030D8                     
  4479                           ;Labs/Lab10_EEPROM/EEPROM.c: 65:         labState = 1;
  4480   0030D8  0E01               	movlw	1
  4481   0030DA  6E5D               	movwf	_labState^(0+1280),c
  4482   0030DC                     l3961:
  4483                           
  4484                           ;Labs/Lab10_EEPROM/EEPROM.c: 68:     if (labState == 1) {
  4485   0030DC  045D               	decf	_labState^(0+1280),w,c
  4486   0030DE  A4D8               	btfss	status,2,c
  4487   0030E0  EF74  F018         	goto	u2041
  4488   0030E4  EF76  F018         	goto	u2040
  4489   0030E8                     u2041:
  4490   0030E8  EF99  F018         	goto	l3971
  4491   0030EC                     u2040:
  4492   0030EC                     
  4493                           ;Labs/Lab10_EEPROM/EEPROM.c: 70:         adcResult = ADCC_GetSingleConversion(POT_CHANNE
      +                          L) >> 12;
  4494   0030EC  0E00               	movlw	0
  4495   0030EE  ECA5  F01B         	call	_ADCC_GetSingleConversion
  4496   0030F2  0E0C               	movlw	12
  4497   0030F4  6E0B               	movwf	??_EEPROM^(0+1280),c
  4498   0030F6                     u2055:
  4499   0030F6  90D8               	bcf	status,0,c
  4500   0030F8  3204               	rrcf	(?_ADCC_GetSingleConversion+1)^(0+1280),f,c
  4501   0030FA  3203               	rrcf	?_ADCC_GetSingleConversion^(0+1280),f,c
  4502   0030FC  2E0B               	decfsz	??_EEPROM^(0+1280),f,c
  4503   0030FE  EF7B  F018         	goto	u2055
  4504   003102  5003               	movf	?_ADCC_GetSingleConversion^(0+1280),w,c
  4505   003104  6E54               	movwf	_adcResult@EEPROM$F398^(0+1280),c
  4506   003106                     
  4507                           ;Labs/Lab10_EEPROM/EEPROM.c: 71:         EEPROM_Write(0x0000, adcResult);
  4508   003106  0E00               	movlw	0
  4509   003108  6E03               	movwf	EEPROM_Write@address^(0+1280),c
  4510   00310A  0E00               	movlw	0
  4511   00310C  6E04               	movwf	(EEPROM_Write@address+1)^(0+1280),c
  4512   00310E  0E00               	movlw	0
  4513   003110  6E05               	movwf	(EEPROM_Write@address+2)^(0+1280),c
  4514   003112  C554  F506         	movff	_adcResult@EEPROM$F398,EEPROM_Write@data
  4515   003116  ECB3  F019         	call	_EEPROM_Write	;wreg free
  4516   00311A                     
  4517                           ;Labs/Lab10_EEPROM/EEPROM.c: 74:         ledDisplay = EEPROM_Read(0x0000);
  4518   00311A  0E00               	movlw	0
  4519   00311C  6E03               	movwf	EEPROM_Read@address^(0+1280),c
  4520   00311E  0E00               	movlw	0
  4521   003120  6E04               	movwf	(EEPROM_Read@address+1)^(0+1280),c
  4522   003122  0E00               	movlw	0
  4523   003124  6E05               	movwf	(EEPROM_Read@address+2)^(0+1280),c
  4524   003126  EC8E  F01B         	call	_EEPROM_Read	;wreg free
  4525   00312A  6E53               	movwf	_ledDisplay^(0+1280),c
  4526   00312C                     
  4527                           ;Labs/Lab10_EEPROM/EEPROM.c: 77:         LATA = ledDisplay << 4;
  4528   00312C  3853               	swapf	_ledDisplay^(0+1280),w,c
  4529   00312E  0BF0               	andlw	240
  4530   003130  6EBE               	movwf	190,c	;volatile
  4531   003132                     l3971:
  4532                           
  4533                           ;Labs/Lab10_EEPROM/EEPROM.c: 80:     if (switchEvent) {
  4534   003132  505E               	movf	_switchEvent^(0+1280),w,c
  4535   003134  B4D8               	btfsc	status,2,c
  4536   003136  EF9F  F018         	goto	u2061
  4537   00313A  EFA1  F018         	goto	u2060
  4538   00313E                     u2061:
  4539   00313E  EFA3  F018         	goto	l319
  4540   003142                     u2060:
  4541   003142                     
  4542                           ;Labs/Lab10_EEPROM/EEPROM.c: 81:         labState = 0;
  4543   003142  0E00               	movlw	0
  4544   003144  6E5D               	movwf	_labState^(0+1280),c
  4545   003146                     l319:
  4546   003146  0012               	return		;funcret
  4547   003148                     __end_of_EEPROM:
  4548                           	callstack 0
  4549                           
  4550 ;; *************** function _EEPROM_Write *****************
  4551 ;; Defined at:
  4552 ;;		line 309 in file "mcc_generated_files/nvm/src/nvm.c"
  4553 ;; Parameters:    Size  Location     Type
  4554 ;;  address         3    2[COMRAM] unsigned um
  4555 ;;  data            1    5[COMRAM] unsigned char 
  4556 ;; Auto vars:     Size  Location     Type
  4557 ;;  globalInterr    1    9[COMRAM] unsigned char 
  4558 ;; Return value:  Size  Location     Type
  4559 ;;                  1    wreg      void 
  4560 ;; Registers used:
  4561 ;;		wreg, status,2
  4562 ;; Tracked objects:
  4563 ;;		On entry : 0/0
  4564 ;;		On exit  : 0/0
  4565 ;;		Unchanged: 0/0
  4566 ;; Data sizes:     COMRAM   BANK5   BANK6   BANK7   BANK8   BANK9  BANK10  BANK11  BANK12  BANK13  BANK14  BANK15  BANK1
      +6  BANK17  BANK18  BANK19  BANK20  BANK21  BANK22  BANK23  BANK24  BANK25  BANK26  BANK27  BANK28  BANK29  BANK30  BANK3
      +1  BANK32  BANK33  BANK34  BANK35  BANK36
  4567 ;;      Params:         4       0       0       0       0       0       0       0       0       0       0       0       
      +0       0       0       0       0       0       0       0       0       0       0       0       0       0       0       
      +0       0       0       0       0       0
  4568 ;;      Locals:         1       0       0       0       0       0       0       0       0       0       0       0       
      +0       0       0       0       0       0       0       0       0       0       0       0       0       0       0       
      +0       0       0       0       0       0
  4569 ;;      Temps:          3       0       0       0       0       0       0       0       0       0       0       0       
      +0       0       0       0       0       0       0       0       0       0       0       0       0       0       0       
      +0       0       0       0       0       0
  4570 ;;      Totals:         8       0       0       0       0       0       0       0       0       0       0       0       
      +0       0       0       0       0       0       0       0       0       0       0       0       0       0       0       
      +0       0       0       0       0       0
  4571 ;;Total ram usage:        8 bytes
  4572 ;; Hardware stack levels used: 1
  4573 ;; Hardware stack levels required when called: 3
  4574 ;; This function calls:
  4575 ;;		Nothing
  4576 ;; This function is called by:
  4577 ;;		_EEPROM
  4578 ;; This function uses a non-reentrant model
  4579 ;;
  4580                           
  4581                           ;# 
  4582                           
  4583                           	psect	text43
  4584   003366                     __ptext43:
  4585                           	callstack 0
  4586   003366                     _EEPROM_Write:
  4587                           	callstack 122
  4588   003366                     
  4589                           ;mcc_generated_files/nvm/src/nvm.c: 309: void EEPROM_Write(eeprom_address_t address, eep
      +                          rom_data_t data);mcc_generated_files/nvm/src/nvm.c: 310: {;mcc_generated_files/nvm/src/n
      +                          vm.c: 312:     uint8_t globalInterruptBitValue = INTCON0bits.GIE;
  4590   003366  0E00               	movlw	0
  4591   003368  BED6               	btfsc	214,7,c	;volatile
  4592   00336A  0E01               	movlw	1
  4593   00336C  6E0A               	movwf	EEPROM_Write@globalInterruptBitValue^(0+1280),c
  4594   00336E                     
  4595                           ;mcc_generated_files/nvm/src/nvm.c: 315:     NVMADRU = (uint8_t) (address >> 16);
  4596   00336E  C505  F045         	movff	EEPROM_Write@address+2,69	;volatile
  4597   003372                     
  4598                           ;mcc_generated_files/nvm/src/nvm.c: 316:     NVMADRH = (uint8_t) (address >> 8);
  4599   003372  C503  F507         	movff	EEPROM_Write@address,??_EEPROM_Write
  4600   003376  C504  F508         	movff	EEPROM_Write@address+1,??_EEPROM_Write+1
  4601   00337A  C505  F509         	movff	EEPROM_Write@address+2,??_EEPROM_Write+2
  4602   00337E  C508  F507         	movff	??_EEPROM_Write+1,??_EEPROM_Write
  4603   003382  C509  F508         	movff	??_EEPROM_Write+2,??_EEPROM_Write+1
  4604   003386  6A09               	clrf	(??_EEPROM_Write+2)^(0+1280),c
  4605   003388  5007               	movf	??_EEPROM_Write^(0+1280),w,c
  4606   00338A  0100               	movlb	0	; () banked
  4607   00338C  6F44               	movwf	68,b	;volatile
  4608   00338E                     
  4609                           ; BSR set to: 0
  4610                           ;mcc_generated_files/nvm/src/nvm.c: 317:     NVMADRL = (uint8_t) address;
  4611   00338E  C503  F043         	movff	EEPROM_Write@address,67	;volatile
  4612   003392                     
  4613                           ; BSR set to: 0
  4614                           ;mcc_generated_files/nvm/src/nvm.c: 320:     NVMDATL = data;
  4615   003392  C506  F046         	movff	EEPROM_Write@data,70	;volatile
  4616   003396                     
  4617                           ; BSR set to: 0
  4618                           ;mcc_generated_files/nvm/src/nvm.c: 323:     NVMCON1bits.NVMCMD = 0x03;
  4619   003396  5141               	movf	65,w,b	;volsfr
  4620   003398  0BF8               	andlw	-8
  4621   00339A  0903               	iorlw	3
  4622   00339C  6F41               	movwf	65,b	;volsfr
  4623   00339E                     
  4624                           ; BSR set to: 0
  4625                           ;mcc_generated_files/nvm/src/nvm.c: 326:     INTCON0bits.GIE = 0;
  4626   00339E  9ED6               	bcf	214,7,c	;volatile
  4627                           
  4628                           ;# 
  4629                           ;# 
  4630   0033A0  0100               	banksel	66	;# 
  4631   0033A2                     
  4632                           ;mcc_generated_files/nvm/src/nvm.c: 332:     NVMLOCK = unlockKeyLow;
  4633   0033A2  C552  F042         	movff	_unlockKeyLow,66	;volatile
  4634   0033A6  5051               	movf	_unlockKeyHigh& (0+255),w,c	;# 
  4635   0033A8  6F42               	movwf	66,b	;# 
  4636   0033AA  8140               	bsf	64,0,b	;# 
  4637   0033AC                     
  4638                           ;mcc_generated_files/nvm/src/nvm.c: 341:     INTCON0bits.GIE = globalInterruptBitValue;
  4639   0033AC  B00A               	btfsc	EEPROM_Write@globalInterruptBitValue^(0+1280),0,c
  4640   0033AE  D002               	bra	u1745
  4641   0033B0  9ED6               	bcf	214,7,c	;volatile
  4642   0033B2  D001               	bra	u1746
  4643   0033B4                     u1745:
  4644   0033B4  8ED6               	bsf	214,7,c	;volatile
  4645   0033B6                     u1746:
  4646   0033B6                     
  4647                           ;mcc_generated_files/nvm/src/nvm.c: 344:     NVMCON1bits.NVMCMD = 0x00;
  4648   0033B6  0EF8               	movlw	-8
  4649   0033B8  0100               	movlb	0	; () banked
  4650   0033BA  1741               	andwf	65,f,b	;volsfr
  4651   0033BC                     
  4652                           ; BSR set to: 0
  4653   0033BC  0012               	return		;funcret
  4654   0033BE                     __end_of_EEPROM_Write:
  4655                           	callstack 0
  4656                           
  4657 ;; *************** function _EEPROM_Read *****************
  4658 ;; Defined at:
  4659 ;;		line 293 in file "mcc_generated_files/nvm/src/nvm.c"
  4660 ;; Parameters:    Size  Location     Type
  4661 ;;  address         3    2[COMRAM] unsigned um
  4662 ;; Auto vars:     Size  Location     Type
  4663 ;;		None
  4664 ;; Return value:  Size  Location     Type
  4665 ;;                  1    wreg      unsigned char 
  4666 ;; Registers used:
  4667 ;;		wreg, status,2
  4668 ;; Tracked objects:
  4669 ;;		On entry : 0/0
  4670 ;;		On exit  : 0/0
  4671 ;;		Unchanged: 0/0
  4672 ;; Data sizes:     COMRAM   BANK5   BANK6   BANK7   BANK8   BANK9  BANK10  BANK11  BANK12  BANK13  BANK14  BANK15  BANK1
      +6  BANK17  BANK18  BANK19  BANK20  BANK21  BANK22  BANK23  BANK24  BANK25  BANK26  BANK27  BANK28  BANK29  BANK30  BANK3
      +1  BANK32  BANK33  BANK34  BANK35  BANK36
  4673 ;;      Params:         3       0       0       0       0       0       0       0       0       0       0       0       
      +0       0       0       0       0       0       0       0       0       0       0       0       0       0       0       
      +0       0       0       0       0       0
  4674 ;;      Locals:         0       0       0       0       0       0       0       0       0       0       0       0       
      +0       0       0       0       0       0       0       0       0       0       0       0       0       0       0       
      +0       0       0       0       0       0
  4675 ;;      Temps:          3       0       0       0       0       0       0       0       0       0       0       0       
      +0       0       0       0       0       0       0       0       0       0       0       0       0       0       0       
      +0       0       0       0       0       0
  4676 ;;      Totals:         6       0       0       0       0       0       0       0       0       0       0       0       
      +0       0       0       0       0       0       0       0       0       0       0       0       0       0       0       
      +0       0       0       0       0       0
  4677 ;;Total ram usage:        6 bytes
  4678 ;; Hardware stack levels used: 1
  4679 ;; Hardware stack levels required when called: 3
  4680 ;; This function calls:
  4681 ;;		Nothing
  4682 ;; This function is called by:
  4683 ;;		_EEPROM
  4684 ;; This function uses a non-reentrant model
  4685 ;;
  4686                           
  4687                           	psect	text44
  4688   00371C                     __ptext44:
  4689                           	callstack 0
  4690   00371C                     _EEPROM_Read:
  4691                           	callstack 122
  4692   00371C                     
  4693                           ;mcc_generated_files/nvm/src/nvm.c: 293: eeprom_data_t EEPROM_Read(eeprom_address_t addr
      +                          ess);mcc_generated_files/nvm/src/nvm.c: 294: {;mcc_generated_files/nvm/src/nvm.c: 296:  
      +                             NVMADRU = (uint8_t) (address >> 16);
  4694   00371C  C505  F045         	movff	EEPROM_Read@address+2,69	;volatile
  4695   003720                     
  4696                           ;mcc_generated_files/nvm/src/nvm.c: 297:     NVMADRH = (uint8_t) (address >> 8);
  4697   003720  C503  F506         	movff	EEPROM_Read@address,??_EEPROM_Read
  4698   003724  C504  F507         	movff	EEPROM_Read@address+1,??_EEPROM_Read+1
  4699   003728  C505  F508         	movff	EEPROM_Read@address+2,??_EEPROM_Read+2
  4700   00372C  C507  F506         	movff	??_EEPROM_Read+1,??_EEPROM_Read
  4701   003730  C508  F507         	movff	??_EEPROM_Read+2,??_EEPROM_Read+1
  4702   003734  6A08               	clrf	(??_EEPROM_Read+2)^(0+1280),c
  4703   003736  5006               	movf	??_EEPROM_Read^(0+1280),w,c
  4704   003738  0100               	movlb	0	; () banked
  4705   00373A  6F44               	movwf	68,b	;volatile
  4706   00373C                     
  4707                           ; BSR set to: 0
  4708                           ;mcc_generated_files/nvm/src/nvm.c: 298:     NVMADRL = (uint8_t) address;
  4709   00373C  C503  F043         	movff	EEPROM_Read@address,67	;volatile
  4710                           
  4711                           ;mcc_generated_files/nvm/src/nvm.c: 301:     NVMCON1bits.NVMCMD = 0x00;
  4712   003740  0EF8               	movlw	-8
  4713   003742  1741               	andwf	65,f,b	;volsfr
  4714   003744                     
  4715                           ; BSR set to: 0
  4716                           ;mcc_generated_files/nvm/src/nvm.c: 304:     NVMCON0bits.GO = 1;
  4717   003744  8140               	bsf	64,0,b	;volatile
  4718                           
  4719                           ;mcc_generated_files/nvm/src/nvm.c: 306:     return NVMDATL;
  4720   003746  5146               	movf	70,w,b	;volatile
  4721   003748                     
  4722                           ; BSR set to: 0
  4723   003748  0012               	return		;funcret
  4724   00374A                     __end_of_EEPROM_Read:
  4725                           	callstack 0
  4726                           
  4727 ;; *************** function _Blink *****************
  4728 ;; Defined at:
  4729 ;;		line 59 in file "Labs/Lab02_Blink/Blink.c"
  4730 ;; Parameters:    Size  Location     Type
  4731 ;;		None
  4732 ;; Auto vars:     Size  Location     Type
  4733 ;;		None
  4734 ;; Return value:  Size  Location     Type
  4735 ;;                  1    wreg      void 
  4736 ;; Registers used:
  4737 ;;		wreg, status,2, status,0, cstack
  4738 ;; Tracked objects:
  4739 ;;		On entry : 0/0
  4740 ;;		On exit  : 0/0
  4741 ;;		Unchanged: 0/0
  4742 ;; Data sizes:     COMRAM   BANK5   BANK6   BANK7   BANK8   BANK9  BANK10  BANK11  BANK12  BANK13  BANK14  BANK15  BANK1
      +6  BANK17  BANK18  BANK19  BANK20  BANK21  BANK22  BANK23  BANK24  BANK25  BANK26  BANK27  BANK28  BANK29  BANK30  BANK3
      +1  BANK32  BANK33  BANK34  BANK35  BANK36
  4743 ;;      Params:         0       0       0       0       0       0       0       0       0       0       0       0       
      +0       0       0       0       0       0       0       0       0       0       0       0       0       0       0       
      +0       0       0       0       0       0
  4744 ;;      Locals:         0       0       0       0       0       0       0       0       0       0       0       0       
      +0       0       0       0       0       0       0       0       0       0       0       0       0       0       0       
      +0       0       0       0       0       0
  4745 ;;      Temps:          1       0       0       0       0       0       0       0       0       0       0       0       
      +0       0       0       0       0       0       0       0       0       0       0       0       0       0       0       
      +0       0       0       0       0       0
  4746 ;;      Totals:         1       0       0       0       0       0       0       0       0       0       0       0       
      +0       0       0       0       0       0       0       0       0       0       0       0       0       0       0       
      +0       0       0       0       0       0
  4747 ;;Total ram usage:        1 bytes
  4748 ;; Hardware stack levels used: 1
  4749 ;; Hardware stack levels required when called: 5
  4750 ;; This function calls:
  4751 ;;		_TMR1_HasOverflowOccured
  4752 ;;		_TMR1_Reload
  4753 ;;		_TMR1_Start
  4754 ;;		_TMR1_Stop
  4755 ;; This function is called by:
  4756 ;;		_main
  4757 ;; This function uses a non-reentrant model
  4758 ;;
  4759                           
  4760                           	psect	text45
  4761   002E00                     __ptext45:
  4762                           	callstack 0
  4763   002E00                     _Blink:
  4764                           	callstack 121
  4765   002E00                     
  4766                           ;Labs/Lab02_Blink/Blink.c: 60:     if (labState == 0) {
  4767   002E00  505D               	movf	_labState^(0+1280),w,c
  4768   002E02  A4D8               	btfss	status,2,c
  4769   002E04  EF06  F017         	goto	u1751
  4770   002E08  EF08  F017         	goto	u1750
  4771   002E0C                     u1751:
  4772   002E0C  EF0E  F017         	goto	l3821
  4773   002E10                     u1750:
  4774   002E10  0E00               	movlw	0
  4775   002E12  6EBE               	movwf	190,c	;volatile
  4776   002E14                     
  4777                           ;Labs/Lab02_Blink/Blink.c: 62:         TMR1_Start();
  4778   002E14  ECF5  F01C         	call	_TMR1_Start	;wreg free
  4779   002E18                     
  4780                           ;Labs/Lab02_Blink/Blink.c: 64:         labState = 1;
  4781   002E18  0E01               	movlw	1
  4782   002E1A  6E5D               	movwf	_labState^(0+1280),c
  4783   002E1C                     l3821:
  4784                           
  4785                           ;Labs/Lab02_Blink/Blink.c: 67:     if (labState == 1) {
  4786   002E1C  045D               	decf	_labState^(0+1280),w,c
  4787   002E1E  A4D8               	btfss	status,2,c
  4788   002E20  EF14  F017         	goto	u1761
  4789   002E24  EF16  F017         	goto	u1760
  4790   002E28                     u1761:
  4791   002E28  EF40  F017         	goto	l3837
  4792   002E2C                     u1760:
  4793   002E2C                     l3825:
  4794   002E2C  EC8A  F01C         	call	_TMR1_HasOverflowOccured	;wreg free
  4795   002E30  0900               	iorlw	0
  4796   002E32  B4D8               	btfsc	status,2,c
  4797   002E34  EF1E  F017         	goto	u1771
  4798   002E38  EF20  F017         	goto	u1770
  4799   002E3C                     u1771:
  4800   002E3C  EF16  F017         	goto	l3825
  4801   002E40                     u1770:
  4802   002E40                     
  4803                           ;Labs/Lab02_Blink/Blink.c: 69:         TMR1IF = 0;
  4804   002E40  98B1               	bcf	1201,4,c	;volatile
  4805   002E42                     
  4806                           ;Labs/Lab02_Blink/Blink.c: 70:         TMR1_Reload();
  4807   002E42  ECDA  F01C         	call	_TMR1_Reload	;wreg free
  4808   002E46                     
  4809                           ;Labs/Lab02_Blink/Blink.c: 71:         flagCounter++;
  4810   002E46  2A5B               	incf	_flagCounter^(0+1280),f,c
  4811   002E48                     
  4812                           ;Labs/Lab02_Blink/Blink.c: 73:         if(flagCounter == 3){
  4813   002E48  0E03               	movlw	3
  4814   002E4A  185B               	xorwf	_flagCounter^(0+1280),w,c
  4815   002E4C  A4D8               	btfss	status,2,c
  4816   002E4E  EF2B  F017         	goto	u1781
  4817   002E52  EF2D  F017         	goto	u1780
  4818   002E56                     u1781:
  4819   002E56  EF40  F017         	goto	l3837
  4820   002E5A                     u1780:
  4821   002E5A  B8BE               	btfsc	190,4,c	;volatile
  4822   002E5C  EF32  F017         	goto	u1791
  4823   002E60  EF35  F017         	goto	u1790
  4824   002E64                     u1791:
  4825   002E64  0E01               	movlw	1
  4826   002E66  EF36  F017         	goto	u1796
  4827   002E6A                     u1790:
  4828   002E6A  0E00               	movlw	0
  4829   002E6C                     u1796:
  4830   002E6C  0AFF               	xorlw	255
  4831   002E6E  6E05               	movwf	??_Blink^(0+1280),c
  4832   002E70  3A05               	swapf	??_Blink^(0+1280),f,c
  4833   002E72  50BE               	movf	190,w,c	;volatile
  4834   002E74  1805               	xorwf	??_Blink^(0+1280),w,c
  4835   002E76  0BEF               	andlw	-17
  4836   002E78  1805               	xorwf	??_Blink^(0+1280),w,c
  4837   002E7A  6EBE               	movwf	190,c	;volatile
  4838   002E7C                     
  4839                           ;Labs/Lab02_Blink/Blink.c: 75:             flagCounter = 0;
  4840   002E7C  0E00               	movlw	0
  4841   002E7E  6E5B               	movwf	_flagCounter^(0+1280),c
  4842   002E80                     l3837:
  4843                           
  4844                           ;Labs/Lab02_Blink/Blink.c: 79:     if (switchEvent) {
  4845   002E80  505E               	movf	_switchEvent^(0+1280),w,c
  4846   002E82  B4D8               	btfsc	status,2,c
  4847   002E84  EF46  F017         	goto	u1801
  4848   002E88  EF48  F017         	goto	u1800
  4849   002E8C                     u1801:
  4850   002E8C  EF4C  F017         	goto	l60
  4851   002E90                     u1800:
  4852   002E90                     
  4853                           ;Labs/Lab02_Blink/Blink.c: 80:         TMR1_Stop();
  4854   002E90  ECF2  F01C         	call	_TMR1_Stop	;wreg free
  4855   002E94                     
  4856                           ;Labs/Lab02_Blink/Blink.c: 81:         labState = 0;
  4857   002E94  0E00               	movlw	0
  4858   002E96  6E5D               	movwf	_labState^(0+1280),c
  4859   002E98                     l60:
  4860   002E98  0012               	return		;funcret
  4861   002E9A                     __end_of_Blink:
  4862                           	callstack 0
  4863                           
  4864 ;; *************** function _TMR1_Stop *****************
  4865 ;; Defined at:
  4866 ;;		line 95 in file "mcc_generated_files/timer/src/tmr1.c"
  4867 ;; Parameters:    Size  Location     Type
  4868 ;;		None
  4869 ;; Auto vars:     Size  Location     Type
  4870 ;;		None
  4871 ;; Return value:  Size  Location     Type
  4872 ;;                  1    wreg      void 
  4873 ;; Registers used:
  4874 ;;		None
  4875 ;; Tracked objects:
  4876 ;;		On entry : 0/0
  4877 ;;		On exit  : 0/0
  4878 ;;		Unchanged: 0/0
  4879 ;; Data sizes:     COMRAM   BANK5   BANK6   BANK7   BANK8   BANK9  BANK10  BANK11  BANK12  BANK13  BANK14  BANK15  BANK1
      +6  BANK17  BANK18  BANK19  BANK20  BANK21  BANK22  BANK23  BANK24  BANK25  BANK26  BANK27  BANK28  BANK29  BANK30  BANK3
      +1  BANK32  BANK33  BANK34  BANK35  BANK36
  4880 ;;      Params:         0       0       0       0       0       0       0       0       0       0       0       0       
      +0       0       0       0       0       0       0       0       0       0       0       0       0       0       0       
      +0       0       0       0       0       0
  4881 ;;      Locals:         0       0       0       0       0       0       0       0       0       0       0       0       
      +0       0       0       0       0       0       0       0       0       0       0       0       0       0       0       
      +0       0       0       0       0       0
  4882 ;;      Temps:          0       0       0       0       0       0       0       0       0       0       0       0       
      +0       0       0       0       0       0       0       0       0       0       0       0       0       0       0       
      +0       0       0       0       0       0
  4883 ;;      Totals:         0       0       0       0       0       0       0       0       0       0       0       0       
      +0       0       0       0       0       0       0       0       0       0       0       0       0       0       0       
      +0       0       0       0       0       0
  4884 ;;Total ram usage:        0 bytes
  4885 ;; Hardware stack levels used: 1
  4886 ;; Hardware stack levels required when called: 3
  4887 ;; This function calls:
  4888 ;;		Nothing
  4889 ;; This function is called by:
  4890 ;;		_Blink
  4891 ;;		_Timers
  4892 ;; This function uses a non-reentrant model
  4893 ;;
  4894                           
  4895                           	psect	text46
  4896   0039E4                     __ptext46:
  4897                           	callstack 0
  4898   0039E4                     _TMR1_Stop:
  4899                           	callstack 122
  4900   0039E4                     
  4901                           ;mcc_generated_files/timer/src/tmr1.c: 98:     T1CONbits.TMR1ON = 0;
  4902   0039E4  0103               	movlb	3	; () banked
  4903   0039E6  911E               	bcf	30,0,b	;volatile
  4904   0039E8                     
  4905                           ; BSR set to: 3
  4906   0039E8  0012               	return		;funcret
  4907   0039EA                     __end_of_TMR1_Stop:
  4908                           	callstack 0
  4909                           
  4910 ;; *************** function _TMR1_Start *****************
  4911 ;; Defined at:
  4912 ;;		line 89 in file "mcc_generated_files/timer/src/tmr1.c"
  4913 ;; Parameters:    Size  Location     Type
  4914 ;;		None
  4915 ;; Auto vars:     Size  Location     Type
  4916 ;;		None
  4917 ;; Return value:  Size  Location     Type
  4918 ;;                  1    wreg      void 
  4919 ;; Registers used:
  4920 ;;		None
  4921 ;; Tracked objects:
  4922 ;;		On entry : 0/0
  4923 ;;		On exit  : 0/0
  4924 ;;		Unchanged: 0/0
  4925 ;; Data sizes:     COMRAM   BANK5   BANK6   BANK7   BANK8   BANK9  BANK10  BANK11  BANK12  BANK13  BANK14  BANK15  BANK1
      +6  BANK17  BANK18  BANK19  BANK20  BANK21  BANK22  BANK23  BANK24  BANK25  BANK26  BANK27  BANK28  BANK29  BANK30  BANK3
      +1  BANK32  BANK33  BANK34  BANK35  BANK36
  4926 ;;      Params:         0       0       0       0       0       0       0       0       0       0       0       0       
      +0       0       0       0       0       0       0       0       0       0       0       0       0       0       0       
      +0       0       0       0       0       0
  4927 ;;      Locals:         0       0       0       0       0       0       0       0       0       0       0       0       
      +0       0       0       0       0       0       0       0       0       0       0       0       0       0       0       
      +0       0       0       0       0       0
  4928 ;;      Temps:          0       0       0       0       0       0       0       0       0       0       0       0       
      +0       0       0       0       0       0       0       0       0       0       0       0       0       0       0       
      +0       0       0       0       0       0
  4929 ;;      Totals:         0       0       0       0       0       0       0       0       0       0       0       0       
      +0       0       0       0       0       0       0       0       0       0       0       0       0       0       0       
      +0       0       0       0       0       0
  4930 ;;Total ram usage:        0 bytes
  4931 ;; Hardware stack levels used: 1
  4932 ;; Hardware stack levels required when called: 3
  4933 ;; This function calls:
  4934 ;;		Nothing
  4935 ;; This function is called by:
  4936 ;;		_Blink
  4937 ;;		_Timers
  4938 ;; This function uses a non-reentrant model
  4939 ;;
  4940                           
  4941                           	psect	text47
  4942   0039EA                     __ptext47:
  4943                           	callstack 0
  4944   0039EA                     _TMR1_Start:
  4945                           	callstack 122
  4946   0039EA                     
  4947                           ;mcc_generated_files/timer/src/tmr1.c: 92:     T1CONbits.TMR1ON = 1;
  4948   0039EA  0103               	movlb	3	; () banked
  4949   0039EC  811E               	bsf	30,0,b	;volatile
  4950   0039EE                     
  4951                           ; BSR set to: 3
  4952   0039EE  0012               	return		;funcret
  4953   0039F0                     __end_of_TMR1_Start:
  4954                           	callstack 0
  4955                           
  4956 ;; *************** function _TMR1_Reload *****************
  4957 ;; Defined at:
  4958 ;;		line 137 in file "mcc_generated_files/timer/src/tmr1.c"
  4959 ;; Parameters:    Size  Location     Type
  4960 ;;		None
  4961 ;; Auto vars:     Size  Location     Type
  4962 ;;		None
  4963 ;; Return value:  Size  Location     Type
  4964 ;;                  1    wreg      void 
  4965 ;; Registers used:
  4966 ;;		wreg, status,2, cstack
  4967 ;; Tracked objects:
  4968 ;;		On entry : 0/0
  4969 ;;		On exit  : 0/0
  4970 ;;		Unchanged: 0/0
  4971 ;; Data sizes:     COMRAM   BANK5   BANK6   BANK7   BANK8   BANK9  BANK10  BANK11  BANK12  BANK13  BANK14  BANK15  BANK1
      +6  BANK17  BANK18  BANK19  BANK20  BANK21  BANK22  BANK23  BANK24  BANK25  BANK26  BANK27  BANK28  BANK29  BANK30  BANK3
      +1  BANK32  BANK33  BANK34  BANK35  BANK36
  4972 ;;      Params:         0       0       0       0       0       0       0       0       0       0       0       0       
      +0       0       0       0       0       0       0       0       0       0       0       0       0       0       0       
      +0       0       0       0       0       0
  4973 ;;      Locals:         0       0       0       0       0       0       0       0       0       0       0       0       
      +0       0       0       0       0       0       0       0       0       0       0       0       0       0       0       
      +0       0       0       0       0       0
  4974 ;;      Temps:          0       0       0       0       0       0       0       0       0       0       0       0       
      +0       0       0       0       0       0       0       0       0       0       0       0       0       0       0       
      +0       0       0       0       0       0
  4975 ;;      Totals:         0       0       0       0       0       0       0       0       0       0       0       0       
      +0       0       0       0       0       0       0       0       0       0       0       0       0       0       0       
      +0       0       0       0       0       0
  4976 ;;Total ram usage:        0 bytes
  4977 ;; Hardware stack levels used: 1
  4978 ;; Hardware stack levels required when called: 4
  4979 ;; This function calls:
  4980 ;;		_TMR1_Write
  4981 ;; This function is called by:
  4982 ;;		_Blink
  4983 ;;		_Timers
  4984 ;; This function uses a non-reentrant model
  4985 ;;
  4986                           
  4987                           	psect	text48
  4988   0039B4                     __ptext48:
  4989                           	callstack 0
  4990   0039B4                     _TMR1_Reload:
  4991                           	callstack 121
  4992   0039B4                     
  4993                           ;mcc_generated_files/timer/src/tmr1.c: 139:     TMR1_Write(timer1ReloadVal);
  4994   0039B4  C54C  F503         	movff	_timer1ReloadVal,TMR1_Write@timerVal	;volatile
  4995   0039B8  C54D  F504         	movff	_timer1ReloadVal+1,TMR1_Write@timerVal+1	;volatile
  4996   0039BC  ECE7  F01B         	call	_TMR1_Write	;wreg free
  4997   0039C0  0012               	return		;funcret
  4998   0039C2                     __end_of_TMR1_Reload:
  4999                           	callstack 0
  5000                           
  5001 ;; *************** function _TMR1_Write *****************
  5002 ;; Defined at:
  5003 ;;		line 115 in file "mcc_generated_files/timer/src/tmr1.c"
  5004 ;; Parameters:    Size  Location     Type
  5005 ;;  timerVal        2    2[COMRAM] unsigned int 
  5006 ;; Auto vars:     Size  Location     Type
  5007 ;;		None
  5008 ;; Return value:  Size  Location     Type
  5009 ;;                  1    wreg      void 
  5010 ;; Registers used:
  5011 ;;		wreg, status,2
  5012 ;; Tracked objects:
  5013 ;;		On entry : 0/0
  5014 ;;		On exit  : 0/0
  5015 ;;		Unchanged: 0/0
  5016 ;; Data sizes:     COMRAM   BANK5   BANK6   BANK7   BANK8   BANK9  BANK10  BANK11  BANK12  BANK13  BANK14  BANK15  BANK1
      +6  BANK17  BANK18  BANK19  BANK20  BANK21  BANK22  BANK23  BANK24  BANK25  BANK26  BANK27  BANK28  BANK29  BANK30  BANK3
      +1  BANK32  BANK33  BANK34  BANK35  BANK36
  5017 ;;      Params:         2       0       0       0       0       0       0       0       0       0       0       0       
      +0       0       0       0       0       0       0       0       0       0       0       0       0       0       0       
      +0       0       0       0       0       0
  5018 ;;      Locals:         0       0       0       0       0       0       0       0       0       0       0       0       
      +0       0       0       0       0       0       0       0       0       0       0       0       0       0       0       
      +0       0       0       0       0       0
  5019 ;;      Temps:          0       0       0       0       0       0       0       0       0       0       0       0       
      +0       0       0       0       0       0       0       0       0       0       0       0       0       0       0       
      +0       0       0       0       0       0
  5020 ;;      Totals:         2       0       0       0       0       0       0       0       0       0       0       0       
      +0       0       0       0       0       0       0       0       0       0       0       0       0       0       0       
      +0       0       0       0       0       0
  5021 ;;Total ram usage:        2 bytes
  5022 ;; Hardware stack levels used: 1
  5023 ;; Hardware stack levels required when called: 3
  5024 ;; This function calls:
  5025 ;;		Nothing
  5026 ;; This function is called by:
  5027 ;;		_TMR1_Reload
  5028 ;; This function uses a non-reentrant model
  5029 ;;
  5030                           
  5031                           	psect	text49
  5032   0037CE                     __ptext49:
  5033                           	callstack 0
  5034   0037CE                     _TMR1_Write:
  5035                           	callstack 121
  5036   0037CE                     
  5037                           ;mcc_generated_files/timer/src/tmr1.c: 115: void TMR1_Write(size_t timerVal);mcc_generat
      +                          ed_files/timer/src/tmr1.c: 116: {;mcc_generated_files/timer/src/tmr1.c: 117:     if (T1C
      +                          ONbits.NOT_SYNC == 1)
  5038   0037CE  0103               	movlb	3	; () banked
  5039   0037D0  A51E               	btfss	30,2,b	;volatile
  5040   0037D2  EFED  F01B         	goto	u1671
  5041   0037D6  EFEF  F01B         	goto	u1670
  5042   0037DA                     u1671:
  5043   0037DA  EFF7  F01B         	goto	l3647
  5044   0037DE                     u1670:
  5045   0037DE                     
  5046                           ; BSR set to: 3
  5047                           ;mcc_generated_files/timer/src/tmr1.c: 118:     {;mcc_generated_files/timer/src/tmr1.c: 
      +                          120:         T1CONbits.TMR1ON = 0;
  5048   0037DE  911E               	bcf	30,0,b	;volatile
  5049   0037E0                     
  5050                           ; BSR set to: 3
  5051                           ;mcc_generated_files/timer/src/tmr1.c: 123:         TMR1H = (uint8_t)(timerVal >> 8);
  5052   0037E0  5004               	movf	(TMR1_Write@timerVal+1)^(0+1280),w,c
  5053   0037E2  6F1D               	movwf	29,b	;volatile
  5054   0037E4                     
  5055                           ; BSR set to: 3
  5056                           ;mcc_generated_files/timer/src/tmr1.c: 124:         TMR1L = (uint8_t)timerVal;
  5057   0037E4  C503  F31C         	movff	TMR1_Write@timerVal,796	;volatile
  5058   0037E8                     
  5059                           ; BSR set to: 3
  5060                           ;mcc_generated_files/timer/src/tmr1.c: 127:         T1CONbits.TMR1ON = 1;
  5061   0037E8  811E               	bsf	30,0,b	;volatile
  5062                           
  5063                           ;mcc_generated_files/timer/src/tmr1.c: 128:     }
  5064   0037EA  EFFB  F01B         	goto	l1085
  5065   0037EE                     l3647:
  5066                           
  5067                           ; BSR set to: 3
  5068                           ;mcc_generated_files/timer/src/tmr1.c: 130:     {;mcc_generated_files/timer/src/tmr1.c: 
      +                          132:         TMR1H = (uint8_t)(timerVal >> 8);
  5069   0037EE  5004               	movf	(TMR1_Write@timerVal+1)^(0+1280),w,c
  5070   0037F0  6F1D               	movwf	29,b	;volatile
  5071   0037F2                     
  5072                           ; BSR set to: 3
  5073                           ;mcc_generated_files/timer/src/tmr1.c: 133:         TMR1L = (uint8_t)timerVal;
  5074   0037F2  C503  F31C         	movff	TMR1_Write@timerVal,796	;volatile
  5075   0037F6                     l1085:
  5076                           
  5077                           ; BSR set to: 3
  5078   0037F6  0012               	return		;funcret
  5079   0037F8                     __end_of_TMR1_Write:
  5080                           	callstack 0
  5081                           
  5082 ;; *************** function _TMR1_HasOverflowOccured *****************
  5083 ;; Defined at:
  5084 ;;		line 169 in file "mcc_generated_files/timer/src/tmr1.c"
  5085 ;; Parameters:    Size  Location     Type
  5086 ;;		None
  5087 ;; Auto vars:     Size  Location     Type
  5088 ;;		None
  5089 ;; Return value:  Size  Location     Type
  5090 ;;                  1    wreg      _Bool 
  5091 ;; Registers used:
  5092 ;;		wreg
  5093 ;; Tracked objects:
  5094 ;;		On entry : 0/0
  5095 ;;		On exit  : 0/0
  5096 ;;		Unchanged: 0/0
  5097 ;; Data sizes:     COMRAM   BANK5   BANK6   BANK7   BANK8   BANK9  BANK10  BANK11  BANK12  BANK13  BANK14  BANK15  BANK1
      +6  BANK17  BANK18  BANK19  BANK20  BANK21  BANK22  BANK23  BANK24  BANK25  BANK26  BANK27  BANK28  BANK29  BANK30  BANK3
      +1  BANK32  BANK33  BANK34  BANK35  BANK36
  5098 ;;      Params:         0       0       0       0       0       0       0       0       0       0       0       0       
      +0       0       0       0       0       0       0       0       0       0       0       0       0       0       0       
      +0       0       0       0       0       0
  5099 ;;      Locals:         0       0       0       0       0       0       0       0       0       0       0       0       
      +0       0       0       0       0       0       0       0       0       0       0       0       0       0       0       
      +0       0       0       0       0       0
  5100 ;;      Temps:          0       0       0       0       0       0       0       0       0       0       0       0       
      +0       0       0       0       0       0       0       0       0       0       0       0       0       0       0       
      +0       0       0       0       0       0
  5101 ;;      Totals:         0       0       0       0       0       0       0       0       0       0       0       0       
      +0       0       0       0       0       0       0       0       0       0       0       0       0       0       0       
      +0       0       0       0       0       0
  5102 ;;Total ram usage:        0 bytes
  5103 ;; Hardware stack levels used: 1
  5104 ;; Hardware stack levels required when called: 3
  5105 ;; This function calls:
  5106 ;;		Nothing
  5107 ;; This function is called by:
  5108 ;;		_Blink
  5109 ;;		_Timers
  5110 ;; This function uses a non-reentrant model
  5111 ;;
  5112                           
  5113                           	psect	text50
  5114   003914                     __ptext50:
  5115                           	callstack 0
  5116   003914                     _TMR1_HasOverflowOccured:
  5117                           	callstack 122
  5118   003914                     
  5119                           ;mcc_generated_files/timer/src/tmr1.c: 171:     return(PIR3bits.TMR1IF);
  5120   003914  B8B1               	btfsc	177,4,c	;volatile
  5121   003916  EF8F  F01C         	goto	u391
  5122   00391A  EF92  F01C         	goto	u390
  5123   00391E                     u391:
  5124   00391E  0E01               	movlw	1
  5125   003920  EF93  F01C         	goto	u396
  5126   003924                     u390:
  5127   003924  0E00               	movlw	0
  5128   003926                     u396:
  5129   003926  0012               	return		;funcret
  5130   003928                     __end_of_TMR1_HasOverflowOccured:
  5131                           	callstack 0
  5132                           
  5133 ;; *************** function _ADC *****************
  5134 ;; Defined at:
  5135 ;;		line 54 in file "Labs/Lab04_AnalogToDigitalConversion/ADC.c"
  5136 ;; Parameters:    Size  Location     Type
  5137 ;;		None
  5138 ;; Auto vars:     Size  Location     Type
  5139 ;;		None
  5140 ;; Return value:  Size  Location     Type
  5141 ;;                  1    wreg      void 
  5142 ;; Registers used:
  5143 ;;		wreg, fsr1l, fsr1h, fsr2l, fsr2h, status,2, status,0, tblptrl, tblptrh, tblptru, cstack
  5144 ;; Tracked objects:
  5145 ;;		On entry : 0/0
  5146 ;;		On exit  : 0/0
  5147 ;;		Unchanged: 0/0
  5148 ;; Data sizes:     COMRAM   BANK5   BANK6   BANK7   BANK8   BANK9  BANK10  BANK11  BANK12  BANK13  BANK14  BANK15  BANK1
      +6  BANK17  BANK18  BANK19  BANK20  BANK21  BANK22  BANK23  BANK24  BANK25  BANK26  BANK27  BANK28  BANK29  BANK30  BANK3
      +1  BANK32  BANK33  BANK34  BANK35  BANK36
  5149 ;;      Params:         0       0       0       0       0       0       0       0       0       0       0       0       
      +0       0       0       0       0       0       0       0       0       0       0       0       0       0       0       
      +0       0       0       0       0       0
  5150 ;;      Locals:         0       0       0       0       0       0       0       0       0       0       0       0       
      +0       0       0       0       0       0       0       0       0       0       0       0       0       0       0       
      +0       0       0       0       0       0
  5151 ;;      Temps:          3       0       0       0       0       0       0       0       0       0       0       0       
      +0       0       0       0       0       0       0       0       0       0       0       0       0       0       0       
      +0       0       0       0       0       0
  5152 ;;      Totals:         3       0       0       0       0       0       0       0       0       0       0       0       
      +0       0       0       0       0       0       0       0       0       0       0       0       0       0       0       
      +0       0       0       0       0       0
  5153 ;;Total ram usage:        3 bytes
  5154 ;; Hardware stack levels used: 1
  5155 ;; Hardware stack levels required when called: 11
  5156 ;; This function calls:
  5157 ;;		_ADCC_GetSingleConversion
  5158 ;;		_printf
  5159 ;; This function is called by:
  5160 ;;		_main
  5161 ;; This function uses a non-reentrant model
  5162 ;;
  5163                           
  5164                           	psect	text51
  5165   002FB4                     __ptext51:
  5166                           	callstack 0
  5167   002FB4                     _ADC:
  5168                           	callstack 115
  5169   002FB4                     
  5170                           ;Labs/Lab04_AnalogToDigitalConversion/ADC.c: 56:     if (labState == 0) {
  5171   002FB4  505D               	movf	_labState^(0+1280),w,c
  5172   002FB6  A4D8               	btfss	status,2,c
  5173   002FB8  EFE0  F017         	goto	u1811
  5174   002FBC  EFE2  F017         	goto	u1810
  5175   002FC0                     u1811:
  5176   002FC0  EFE6  F017         	goto	l3847
  5177   002FC4                     u1810:
  5178   002FC4  0E00               	movlw	0
  5179   002FC6  6EBE               	movwf	190,c	;volatile
  5180   002FC8                     
  5181                           ;Labs/Lab04_AnalogToDigitalConversion/ADC.c: 59:         labState = 1;
  5182   002FC8  0E01               	movlw	1
  5183   002FCA  6E5D               	movwf	_labState^(0+1280),c
  5184   002FCC                     l3847:
  5185                           
  5186                           ;Labs/Lab04_AnalogToDigitalConversion/ADC.c: 62:     if (labState == 1) {
  5187   002FCC  045D               	decf	_labState^(0+1280),w,c
  5188   002FCE  A4D8               	btfss	status,2,c
  5189   002FD0  EFEC  F017         	goto	u1821
  5190   002FD4  EFEE  F017         	goto	u1820
  5191   002FD8                     u1821:
  5192   002FD8  EF14  F018         	goto	l3855
  5193   002FDC                     u1820:
  5194   002FDC                     
  5195                           ;Labs/Lab04_AnalogToDigitalConversion/ADC.c: 64:         adcResult = ADCC_GetSingleConve
      +                          rsion(POT_CHANNEL) >> 12;
  5196   002FDC  0E00               	movlw	0
  5197   002FDE  ECA5  F01B         	call	_ADCC_GetSingleConversion
  5198   002FE2  0E0C               	movlw	12
  5199   002FE4  6E47               	movwf	??_ADC^(0+1280),c
  5200   002FE6                     u1835:
  5201   002FE6  90D8               	bcf	status,0,c
  5202   002FE8  3204               	rrcf	(?_ADCC_GetSingleConversion+1)^(0+1280),f,c
  5203   002FEA  3203               	rrcf	?_ADCC_GetSingleConversion^(0+1280),f,c
  5204   002FEC  2E47               	decfsz	??_ADC^(0+1280),f,c
  5205   002FEE  EFF3  F017         	goto	u1835
  5206   002FF2  5003               	movf	?_ADCC_GetSingleConversion^(0+1280),w,c
  5207   002FF4  6E59               	movwf	_adcResult^(0+1280),c
  5208   002FF6                     
  5209                           ;Labs/Lab04_AnalogToDigitalConversion/ADC.c: 67:         printf("ADC Result: %d\n\r", AD
      +                          RES >> 4);
  5210   002FF6  0E7F               	movlw	low STR_1
  5211   002FF8  6E41               	movwf	printf@fmt^(0+1280),c
  5212   002FFA  0E26               	movlw	high STR_1
  5213   002FFC  6E42               	movwf	(printf@fmt+1)^(0+1280),c
  5214   002FFE  C3EA F547          	movff	1002,??_ADC	;volatile
  5215   003002  C3EB F548          	movff	1003,??_ADC+1	;volatile
  5216   003006  0E04               	movlw	4
  5217   003008  6E49               	movwf	(??_ADC+2)^(0+1280),c
  5218   00300A                     u1845:
  5219   00300A  90D8               	bcf	status,0,c
  5220   00300C  3248               	rrcf	(??_ADC+1)^(0+1280),f,c
  5221   00300E  3247               	rrcf	??_ADC^(0+1280),f,c
  5222   003010  2E49               	decfsz	(??_ADC+2)^(0+1280),f,c
  5223   003012  EF05  F018         	goto	u1845
  5224   003016  C547  F543         	movff	??_ADC,?_printf+2
  5225   00301A  C548  F544         	movff	??_ADC+1,?_printf+3
  5226   00301E  ECFC  F01B         	call	_printf	;wreg free
  5227   003022                     
  5228                           ;Labs/Lab04_AnalogToDigitalConversion/ADC.c: 70:         LATA = (adcResult << 4);
  5229   003022  3859               	swapf	_adcResult^(0+1280),w,c
  5230   003024  0BF0               	andlw	240
  5231   003026  6EBE               	movwf	190,c	;volatile
  5232   003028                     l3855:
  5233                           
  5234                           ;Labs/Lab04_AnalogToDigitalConversion/ADC.c: 73:     if (switchEvent) {
  5235   003028  505E               	movf	_switchEvent^(0+1280),w,c
  5236   00302A  B4D8               	btfsc	status,2,c
  5237   00302C  EF1A  F018         	goto	u1851
  5238   003030  EF1C  F018         	goto	u1850
  5239   003034                     u1851:
  5240   003034  EF1E  F018         	goto	l113
  5241   003038                     u1850:
  5242   003038                     
  5243                           ;Labs/Lab04_AnalogToDigitalConversion/ADC.c: 74:         labState = 0;
  5244   003038  0E00               	movlw	0
  5245   00303A  6E5D               	movwf	_labState^(0+1280),c
  5246   00303C                     l113:
  5247   00303C  0012               	return		;funcret
  5248   00303E                     __end_of_ADC:
  5249                           	callstack 0
  5250                           
  5251 ;; *************** function _printf *****************
  5252 ;; Defined at:
  5253 ;;		line 5 in file "C:\Program Files\Microchip\xc8\v2.41\pic\sources\c99\common\printf.c"
  5254 ;; Parameters:    Size  Location     Type
  5255 ;;  fmt             2   64[COMRAM] PTR const unsigned char 
  5256 ;;		 -> STR_3(17), STR_2(17), STR_1(17), 
  5257 ;; Auto vars:     Size  Location     Type
  5258 ;;  ap              2   68[COMRAM] PTR void [1]
  5259 ;;		 -> ?_printf(2), 
  5260 ;;  ret             2    0        int 
  5261 ;; Return value:  Size  Location     Type
  5262 ;;                  2   64[COMRAM] int 
  5263 ;; Registers used:
  5264 ;;		wreg, fsr1l, fsr1h, fsr2l, fsr2h, status,2, status,0, tblptrl, tblptrh, tblptru, cstack
  5265 ;; Tracked objects:
  5266 ;;		On entry : 0/0
  5267 ;;		On exit  : 0/0
  5268 ;;		Unchanged: 0/0
  5269 ;; Data sizes:     COMRAM   BANK5   BANK6   BANK7   BANK8   BANK9  BANK10  BANK11  BANK12  BANK13  BANK14  BANK15  BANK1
      +6  BANK17  BANK18  BANK19  BANK20  BANK21  BANK22  BANK23  BANK24  BANK25  BANK26  BANK27  BANK28  BANK29  BANK30  BANK3
      +1  BANK32  BANK33  BANK34  BANK35  BANK36
  5270 ;;      Params:         4       0       0       0       0       0       0       0       0       0       0       0       
      +0       0       0       0       0       0       0       0       0       0       0       0       0       0       0       
      +0       0       0       0       0       0
  5271 ;;      Locals:         2       0       0       0       0       0       0       0       0       0       0       0       
      +0       0       0       0       0       0       0       0       0       0       0       0       0       0       0       
      +0       0       0       0       0       0
  5272 ;;      Temps:          0       0       0       0       0       0       0       0       0       0       0       0       
      +0       0       0       0       0       0       0       0       0       0       0       0       0       0       0       
      +0       0       0       0       0       0
  5273 ;;      Totals:         6       0       0       0       0       0       0       0       0       0       0       0       
      +0       0       0       0       0       0       0       0       0       0       0       0       0       0       0       
      +0       0       0       0       0       0
  5274 ;;Total ram usage:        6 bytes
  5275 ;; Hardware stack levels used: 1
  5276 ;; Hardware stack levels required when called: 10
  5277 ;; This function calls:
  5278 ;;		_vfprintf
  5279 ;; This function is called by:
  5280 ;;		_ADC
  5281 ;;		_VSR
  5282 ;;		_PWM
  5283 ;; This function uses a non-reentrant model
  5284 ;;
  5285                           
  5286                           	psect	text52
  5287   0037F8                     __ptext52:
  5288                           	callstack 0
  5289   0037F8                     _printf:
  5290                           	callstack 115
  5291   0037F8  0E43               	movlw	low (?_printf+2)
  5292   0037FA  6E45               	movwf	printf@ap^(0+1280),c
  5293   0037FC  0E05               	movlw	high (?_printf+2)
  5294   0037FE  6E46               	movwf	(printf@ap+1)^(0+1280),c
  5295   003800  0E00               	movlw	0
  5296   003802  6E39               	movwf	vfprintf@fp^(0+1280),c
  5297   003804  0E00               	movlw	0
  5298   003806  6E3A               	movwf	(vfprintf@fp+1)^(0+1280),c
  5299   003808  C541  F53B         	movff	printf@fmt,vfprintf@fmt
  5300   00380C  C542  F53C         	movff	printf@fmt+1,vfprintf@fmt+1
  5301   003810  0E45               	movlw	low printf@ap
  5302   003812  6E3D               	movwf	vfprintf@ap^(0+1280),c
  5303   003814  0E05               	movlw	high printf@ap
  5304   003816  6E3E               	movwf	(vfprintf@ap+1)^(0+1280),c
  5305   003818  EC34  F01A         	call	_vfprintf	;wreg free
  5306   00381C  0012               	return		;funcret
  5307   00381E                     __end_of_printf:
  5308                           	callstack 0
  5309                           
  5310 ;; *************** function _vfprintf *****************
  5311 ;; Defined at:
  5312 ;;		line 1546 in file "C:\Program Files\Microchip\xc8\v2.41\pic\sources\c99\common\doprnt.c"
  5313 ;; Parameters:    Size  Location     Type
  5314 ;;  fp              2   56[COMRAM] PTR struct _IO_FILE
  5315 ;;		 -> NULL(0), 
  5316 ;;  fmt             2   58[COMRAM] PTR const unsigned char 
  5317 ;;		 -> STR_3(17), STR_2(17), STR_1(17), 
  5318 ;;  ap              2   60[COMRAM] PTR PTR void 
  5319 ;;		 -> printf@ap(2), 
  5320 ;; Auto vars:     Size  Location     Type
  5321 ;;  cfmt            2   62[COMRAM] PTR unsigned char 
  5322 ;;		 -> STR_3(17), STR_2(17), STR_1(17), 
  5323 ;; Return value:  Size  Location     Type
  5324 ;;                  2   56[COMRAM] int 
  5325 ;; Registers used:
  5326 ;;		wreg, fsr1l, fsr1h, fsr2l, fsr2h, status,2, status,0, tblptrl, tblptrh, tblptru, cstack
  5327 ;; Tracked objects:
  5328 ;;		On entry : 0/0
  5329 ;;		On exit  : 0/0
  5330 ;;		Unchanged: 0/0
  5331 ;; Data sizes:     COMRAM   BANK5   BANK6   BANK7   BANK8   BANK9  BANK10  BANK11  BANK12  BANK13  BANK14  BANK15  BANK1
      +6  BANK17  BANK18  BANK19  BANK20  BANK21  BANK22  BANK23  BANK24  BANK25  BANK26  BANK27  BANK28  BANK29  BANK30  BANK3
      +1  BANK32  BANK33  BANK34  BANK35  BANK36
  5332 ;;      Params:         6       0       0       0       0       0       0       0       0       0       0       0       
      +0       0       0       0       0       0       0       0       0       0       0       0       0       0       0       
      +0       0       0       0       0       0
  5333 ;;      Locals:         2       0       0       0       0       0       0       0       0       0       0       0       
      +0       0       0       0       0       0       0       0       0       0       0       0       0       0       0       
      +0       0       0       0       0       0
  5334 ;;      Temps:          0       0       0       0       0       0       0       0       0       0       0       0       
      +0       0       0       0       0       0       0       0       0       0       0       0       0       0       0       
      +0       0       0       0       0       0
  5335 ;;      Totals:         8       0       0       0       0       0       0       0       0       0       0       0       
      +0       0       0       0       0       0       0       0       0       0       0       0       0       0       0       
      +0       0       0       0       0       0
  5336 ;;Total ram usage:        8 bytes
  5337 ;; Hardware stack levels used: 1
  5338 ;; Hardware stack levels required when called: 9
  5339 ;; This function calls:
  5340 ;;		_vfpfcnvrt
  5341 ;; This function is called by:
  5342 ;;		_printf
  5343 ;; This function uses a non-reentrant model
  5344 ;;
  5345                           
  5346                           	psect	text53
  5347   003468                     __ptext53:
  5348                           	callstack 0
  5349   003468                     _vfprintf:
  5350                           	callstack 115
  5351   003468                     
  5352                           ;C:\Program Files\Microchip\xc8\v2.41\pic\sources\c99\common\doprnt.c: 1546: int vfprint
      +                          f(FILE *fp, const char *fmt, va_list ap);C:\Program Files\Microchip\xc8\v2.41\pic\source
      +                          s\c99\common\doprnt.c: 1547: {;C:\Program Files\Microchip\xc8\v2.41\pic\sources\c99\comm
      +                          on\doprnt.c: 1549:     char *cfmt;;C:\Program Files\Microchip\xc8\v2.41\pic\sources\c99\
      +                          common\doprnt.c: 1551:     cfmt = (char *)fmt;
  5353   003468  C53B  F53F         	movff	vfprintf@fmt,vfprintf@cfmt
  5354   00346C  C53C  F540         	movff	vfprintf@fmt+1,vfprintf@cfmt+1
  5355                           
  5356                           ;C:\Program Files\Microchip\xc8\v2.41\pic\sources\c99\common\doprnt.c: 1555:     while (
      +                          *cfmt) {
  5357   003470  EF48  F01A         	goto	l3669
  5358   003474                     l3667:
  5359                           
  5360                           ;C:\Program Files\Microchip\xc8\v2.41\pic\sources\c99\common\doprnt.c: 1559:    vfpfcnvr
      +                          t(fp, &cfmt, ap);
  5361   003474  C539  F52B         	movff	vfprintf@fp,vfpfcnvrt@fp
  5362   003478  C53A  F52C         	movff	vfprintf@fp+1,vfpfcnvrt@fp+1
  5363   00347C  0E3F               	movlw	low vfprintf@cfmt
  5364   00347E  6E2D               	movwf	vfpfcnvrt@fmt^(0+1280),c
  5365   003480  0E05               	movlw	high vfprintf@cfmt
  5366   003482  6E2E               	movwf	(vfpfcnvrt@fmt+1)^(0+1280),c
  5367   003484  C53D  F52F         	movff	vfprintf@ap,vfpfcnvrt@ap
  5368   003488  C53E  F530         	movff	vfprintf@ap+1,vfpfcnvrt@ap+1
  5369   00348C  EC13  F014         	call	_vfpfcnvrt	;wreg free
  5370   003490                     l3669:
  5371                           
  5372                           ;C:\Program Files\Microchip\xc8\v2.41\pic\sources\c99\common\doprnt.c: 1555:     while (
      +                          *cfmt) {
  5373   003490  C53F  F4F6         	movff	vfprintf@cfmt,tblptrl
  5374   003494  C540  F4F7         	movff	vfprintf@cfmt+1,tblptrh
  5375   003498                     	if	0	;tblptru may be non-zero
  5376   003498                     	endif
  5377   003498                     	if	1	;Program memory is > 0xFFFF, there are 3 active tblptr bytes
  5378   003498  0E00               	movlw	low (__mediumconst shr (0+16))
  5379   00349A  6EF8               	movwf	tblptru,c
  5380   00349C                     	endif
  5381   00349C  0008               	tblrd		*
  5382   00349E  50F5               	movf	tablat,w,c
  5383   0034A0  0900               	iorlw	0
  5384   0034A2  A4D8               	btfss	status,2,c
  5385   0034A4  EF56  F01A         	goto	u1711
  5386   0034A8  EF58  F01A         	goto	u1710
  5387   0034AC                     u1711:
  5388   0034AC  EF3A  F01A         	goto	l3667
  5389   0034B0                     u1710:
  5390   0034B0                     
  5391                           ;C:\Program Files\Microchip\xc8\v2.41\pic\sources\c99\common\doprnt.c: 1564:  return 0;
  5392   0034B0  0E00               	movlw	0
  5393   0034B2  6E3A               	movwf	(?_vfprintf+1)^(0+1280),c
  5394   0034B4  0E00               	movlw	0
  5395   0034B6  6E39               	movwf	?_vfprintf^(0+1280),c
  5396   0034B8  0012               	return		;funcret
  5397   0034BA                     __end_of_vfprintf:
  5398                           	callstack 0
  5399                           
  5400 ;; *************** function _vfpfcnvrt *****************
  5401 ;; Defined at:
  5402 ;;		line 1048 in file "C:\Program Files\Microchip\xc8\v2.41\pic\sources\c99\common\doprnt.c"
  5403 ;; Parameters:    Size  Location     Type
  5404 ;;  fp              2   42[COMRAM] PTR struct _IO_FILE
  5405 ;;		 -> NULL(0), 
  5406 ;;  fmt             2   44[COMRAM] PTR PTR unsigned char 
  5407 ;;		 -> vfprintf@cfmt(2), 
  5408 ;;  ap              2   46[COMRAM] PTR PTR void 
  5409 ;;		 -> printf@ap(2), 
  5410 ;; Auto vars:     Size  Location     Type
  5411 ;;  convarg         4   50[COMRAM] struct .
  5412 ;;  cp              2   54[COMRAM] PTR unsigned char 
  5413 ;;		 -> STR_3(17), STR_2(17), STR_1(17), 
  5414 ;;  i               2    0        int 
  5415 ;;  done            2    0        int 
  5416 ;;  c               1    0        unsigned char 
  5417 ;; Return value:  Size  Location     Type
  5418 ;;                  1    wreg      void 
  5419 ;; Registers used:
  5420 ;;		wreg, fsr1l, fsr1h, fsr2l, fsr2h, status,2, status,0, tblptrl, tblptrh, tblptru, cstack
  5421 ;; Tracked objects:
  5422 ;;		On entry : 0/0
  5423 ;;		On exit  : 0/0
  5424 ;;		Unchanged: 0/0
  5425 ;; Data sizes:     COMRAM   BANK5   BANK6   BANK7   BANK8   BANK9  BANK10  BANK11  BANK12  BANK13  BANK14  BANK15  BANK1
      +6  BANK17  BANK18  BANK19  BANK20  BANK21  BANK22  BANK23  BANK24  BANK25  BANK26  BANK27  BANK28  BANK29  BANK30  BANK3
      +1  BANK32  BANK33  BANK34  BANK35  BANK36
  5426 ;;      Params:         6       0       0       0       0       0       0       0       0       0       0       0       
      +0       0       0       0       0       0       0       0       0       0       0       0       0       0       0       
      +0       0       0       0       0       0
  5427 ;;      Locals:         6       0       0       0       0       0       0       0       0       0       0       0       
      +0       0       0       0       0       0       0       0       0       0       0       0       0       0       0       
      +0       0       0       0       0       0
  5428 ;;      Temps:          2       0       0       0       0       0       0       0       0       0       0       0       
      +0       0       0       0       0       0       0       0       0       0       0       0       0       0       0       
      +0       0       0       0       0       0
  5429 ;;      Totals:        14       0       0       0       0       0       0       0       0       0       0       0       
      +0       0       0       0       0       0       0       0       0       0       0       0       0       0       0       
      +0       0       0       0       0       0
  5430 ;;Total ram usage:       14 bytes
  5431 ;; Hardware stack levels used: 1
  5432 ;; Hardware stack levels required when called: 8
  5433 ;; This function calls:
  5434 ;;		_dtoa
  5435 ;;		_fputc
  5436 ;; This function is called by:
  5437 ;;		_vfprintf
  5438 ;; This function uses a non-reentrant model
  5439 ;;
  5440                           
  5441                           	psect	text54
  5442   002826                     __ptext54:
  5443                           	callstack 0
  5444   002826                     _vfpfcnvrt:
  5445                           	callstack 115
  5446   002826                     
  5447                           ;C:\Program Files\Microchip\xc8\v2.41\pic\sources\c99\common\doprnt.c: 1048: vfpfcnvrt(F
      +                          ILE *fp, char *fmt[], va_list ap);C:\Program Files\Microchip\xc8\v2.41\pic\sources\c99\c
      +                          ommon\doprnt.c: 1049: {;C:\Program Files\Microchip\xc8\v2.41\pic\sources\c99\common\dopr
      +                          nt.c: 1050:     char c, *cp;;C:\Program Files\Microchip\xc8\v2.41\pic\sources\c99\common
      +                          \doprnt.c: 1051:     int done, i;;C:\Program Files\Microchip\xc8\v2.41\pic\sources\c99\c
      +                          ommon\doprnt.c: 1059:  } convarg;;C:\Program Files\Microchip\xc8\v2.41\pic\sources\c99\c
      +                          ommon\doprnt.c: 1062:     if ((*fmt)[0] == '%') {
  5448   002826  C52D  F4D9         	movff	vfpfcnvrt@fmt,fsr2l
  5449   00282A  C52E  F4DA         	movff	vfpfcnvrt@fmt+1,fsr2h
  5450   00282E  C4DE F4F6          	movff	postinc2,tblptrl
  5451   002832  C4DD F4F7          	movff	postdec2,tblptrh
  5452   002836                     	if	0	;tblptru may be non-zero
  5453   002836                     	endif
  5454   002836                     	if	1	;Program memory is > 0xFFFF, there are 3 active tblptr bytes
  5455   002836  0E00               	movlw	low (__mediumconst shr (0+16))
  5456   002838  6EF8               	movwf	tblptru,c
  5457   00283A                     	endif
  5458   00283A  0008               	tblrd		*
  5459   00283C  50F5               	movf	tablat,w,c
  5460   00283E  0A25               	xorlw	37
  5461   002840  A4D8               	btfss	status,2,c
  5462   002842  EF25  F014         	goto	u1641
  5463   002846  EF27  F014         	goto	u1640
  5464   00284A                     u1641:
  5465   00284A  EF96  F014         	goto	l3613
  5466   00284E                     u1640:
  5467   00284E                     
  5468                           ;C:\Program Files\Microchip\xc8\v2.41\pic\sources\c99\common\doprnt.c: 1063:         ++*
      +                          fmt;
  5469   00284E  C52D  F4D9         	movff	vfpfcnvrt@fmt,fsr2l
  5470   002852  C52E  F4DA         	movff	vfpfcnvrt@fmt+1,fsr2h
  5471   002856  2ADE               	incf	postinc2,f,c
  5472   002858  0E00               	movlw	0
  5473   00285A  22DD               	addwfc	postdec2,f,c
  5474   00285C                     
  5475                           ;C:\Program Files\Microchip\xc8\v2.41\pic\sources\c99\common\doprnt.c: 1065:         fla
      +                          gs = width = 0;
  5476   00285C  0E00               	movlw	0
  5477   00285E  0105               	movlb	5	; () banked
  5478   002860  6F76               	movwf	(_width+1)& (0+255),b
  5479   002862  0E00               	movlw	0
  5480   002864  6F75               	movwf	_width& (0+255),b
  5481   002866  C575  F550         	movff	_width,_flags
  5482   00286A                     
  5483                           ; BSR set to: 5
  5484                           ;C:\Program Files\Microchip\xc8\v2.41\pic\sources\c99\common\doprnt.c: 1066:         pre
      +                          c = -1;
  5485   00286A  6977               	setf	_prec& (0+255),b
  5486   00286C  6978               	setf	(_prec+1)& (0+255),b
  5487   00286E                     
  5488                           ; BSR set to: 5
  5489                           ;C:\Program Files\Microchip\xc8\v2.41\pic\sources\c99\common\doprnt.c: 1143:   cp = *fmt
      +                          ;
  5490   00286E  C52D  F4D9         	movff	vfpfcnvrt@fmt,fsr2l
  5491   002872  C52E  F4DA         	movff	vfpfcnvrt@fmt+1,fsr2h
  5492   002876  C4DE F537          	movff	postinc2,vfpfcnvrt@cp
  5493   00287A  C4DD F538          	movff	postdec2,vfpfcnvrt@cp+1
  5494   00287E                     
  5495                           ; BSR set to: 5
  5496                           ;C:\Program Files\Microchip\xc8\v2.41\pic\sources\c99\common\doprnt.c: 1213:   if (*cp =
      +                          = 'd' || *cp == 'i') {
  5497   00287E  C537  F4F6         	movff	vfpfcnvrt@cp,tblptrl
  5498   002882  C538  F4F7         	movff	vfpfcnvrt@cp+1,tblptrh
  5499   002886                     	if	0	;tblptru may be non-zero
  5500   002886                     	endif
  5501   002886                     	if	1	;Program memory is > 0xFFFF, there are 3 active tblptr bytes
  5502   002886  0E00               	movlw	low (__mediumconst shr (0+16))
  5503   002888  6EF8               	movwf	tblptru,c
  5504   00288A                     	endif
  5505   00288A  0008               	tblrd		*
  5506   00288C  50F5               	movf	tablat,w,c
  5507   00288E  0A64               	xorlw	100
  5508   002890  B4D8               	btfsc	status,2,c
  5509   002892  EF4D  F014         	goto	u1651
  5510   002896  EF4F  F014         	goto	u1650
  5511   00289A                     u1651:
  5512   00289A  EF5F  F014         	goto	l3603
  5513   00289E                     u1650:
  5514   00289E                     
  5515                           ; BSR set to: 5
  5516   00289E  C537  F4F6         	movff	vfpfcnvrt@cp,tblptrl
  5517   0028A2  C538  F4F7         	movff	vfpfcnvrt@cp+1,tblptrh
  5518   0028A6                     	if	0	;tblptru may be non-zero
  5519   0028A6                     	endif
  5520   0028A6                     	if	1	;Program memory is > 0xFFFF, there are 3 active tblptr bytes
  5521   0028A6  0E00               	movlw	low (__mediumconst shr (0+16))
  5522   0028A8  6EF8               	movwf	tblptru,c
  5523   0028AA                     	endif
  5524   0028AA  0008               	tblrd		*
  5525   0028AC  50F5               	movf	tablat,w,c
  5526   0028AE  0A69               	xorlw	105
  5527   0028B0  A4D8               	btfss	status,2,c
  5528   0028B2  EF5D  F014         	goto	u1661
  5529   0028B6  EF5F  F014         	goto	u1660
  5530   0028BA                     u1661:
  5531   0028BA  EF8D  F014         	goto	l3609
  5532   0028BE                     u1660:
  5533   0028BE                     l3603:
  5534                           
  5535                           ; BSR set to: 5
  5536                           ;C:\Program Files\Microchip\xc8\v2.41\pic\sources\c99\common\doprnt.c: 1256:    convarg.
      +                          sint = (vfpf_sint_t)(int)(*(int *)__va_arg(*(int **)ap, (int)0));
  5537   0028BE  C52F  F4D9         	movff	vfpfcnvrt@ap,fsr2l
  5538   0028C2  C530  F4DA         	movff	vfpfcnvrt@ap+1,fsr2h
  5539   0028C6  C4DF F531          	movff	indf2,??_vfpfcnvrt
  5540   0028CA  0E02               	movlw	2
  5541   0028CC  26DE               	addwf	postinc2,f,c
  5542   0028CE  C4DF F532          	movff	indf2,??_vfpfcnvrt+1
  5543   0028D2  0E00               	movlw	0
  5544   0028D4  22DD               	addwfc	postdec2,f,c
  5545   0028D6  C531  F4D9         	movff	??_vfpfcnvrt,fsr2l
  5546   0028DA  C532  F4DA         	movff	??_vfpfcnvrt+1,fsr2h
  5547   0028DE  C4DE F533          	movff	postinc2,vfpfcnvrt@convarg
  5548   0028E2  C4DD F534          	movff	postdec2,vfpfcnvrt@convarg+1
  5549                           
  5550                           ;C:\Program Files\Microchip\xc8\v2.41\pic\sources\c99\common\doprnt.c: 1258:    *fmt = c
      +                          p+1;
  5551   0028E6  0E01               	movlw	1
  5552   0028E8  2437               	addwf	vfpfcnvrt@cp^(0+1280),w,c
  5553   0028EA  6E31               	movwf	??_vfpfcnvrt^(0+1280),c
  5554   0028EC  0E00               	movlw	0
  5555   0028EE  2038               	addwfc	(vfpfcnvrt@cp+1)^(0+1280),w,c
  5556   0028F0  6E32               	movwf	(??_vfpfcnvrt+1)^(0+1280),c
  5557   0028F2  C52D  F4D9         	movff	vfpfcnvrt@fmt,fsr2l
  5558   0028F6  C52E  F4DA         	movff	vfpfcnvrt@fmt+1,fsr2h
  5559   0028FA  C531  F4DE         	movff	??_vfpfcnvrt,postinc2
  5560   0028FE  C532  F4DD         	movff	??_vfpfcnvrt+1,postdec2
  5561   002902                     
  5562                           ; BSR set to: 5
  5563                           ;C:\Program Files\Microchip\xc8\v2.41\pic\sources\c99\common\doprnt.c: 1259:    return (
      +                          void) dtoa(fp, convarg.sint);;	Return value of _vfpfcnvrt is never used
  5564   002902  C52B  F51E         	movff	vfpfcnvrt@fp,dtoa@fp
  5565   002906  C52C  F51F         	movff	vfpfcnvrt@fp+1,dtoa@fp+1
  5566   00290A  C533  F520         	movff	vfpfcnvrt@convarg,dtoa@d
  5567   00290E  C534  F521         	movff	vfpfcnvrt@convarg+1,dtoa@d+1
  5568   002912  EC49  F013         	call	_dtoa	;wreg free
  5569   002916  EFAC  F014         	goto	l2189
  5570   00291A                     l3609:
  5571                           
  5572                           ;C:\Program Files\Microchip\xc8\v2.41\pic\sources\c99\common\doprnt.c: 1535:         ++*
      +                          fmt;
  5573   00291A  C52D  F4D9         	movff	vfpfcnvrt@fmt,fsr2l
  5574   00291E  C52E  F4DA         	movff	vfpfcnvrt@fmt+1,fsr2h
  5575   002922  2ADE               	incf	postinc2,f,c
  5576   002924  0E00               	movlw	0
  5577   002926  22DD               	addwfc	postdec2,f,c
  5578   002928  EFAC  F014         	goto	l2189
  5579   00292C                     l3613:
  5580                           
  5581                           ;C:\Program Files\Microchip\xc8\v2.41\pic\sources\c99\common\doprnt.c: 1540:     fputc((
      +                          int)(*fmt)[0], fp);
  5582   00292C  C52D  F4D9         	movff	vfpfcnvrt@fmt,fsr2l
  5583   002930  C52E  F4DA         	movff	vfpfcnvrt@fmt+1,fsr2h
  5584   002934  C4DE F4F6          	movff	postinc2,tblptrl
  5585   002938  C4DD F4F7          	movff	postdec2,tblptrh
  5586   00293C                     	if	0	;tblptru may be non-zero
  5587   00293C                     	endif
  5588   00293C                     	if	1	;Program memory is > 0xFFFF, there are 3 active tblptr bytes
  5589   00293C  0E00               	movlw	low (__mediumconst shr (0+16))
  5590   00293E  6EF8               	movwf	tblptru,c
  5591   002940                     	endif
  5592   002940  0008               	tblrd		*
  5593   002942  50F5               	movf	tablat,w,c
  5594   002944  6E03               	movwf	fputc@c^(0+1280),c
  5595   002946  6A04               	clrf	(fputc@c+1)^(0+1280),c
  5596   002948  C52B  F505         	movff	vfpfcnvrt@fp,fputc@fp
  5597   00294C  C52C  F506         	movff	vfpfcnvrt@fp+1,fputc@fp+1
  5598   002950  EC85  F015         	call	_fputc	;wreg free
  5599   002954  EF8D  F014         	goto	l3609
  5600   002958                     l2189:
  5601   002958  0012               	return		;funcret
  5602   00295A                     __end_of_vfpfcnvrt:
  5603                           	callstack 0
  5604                           
  5605 ;; *************** function _dtoa *****************
  5606 ;; Defined at:
  5607 ;;		line 470 in file "C:\Program Files\Microchip\xc8\v2.41\pic\sources\c99\common\doprnt.c"
  5608 ;; Parameters:    Size  Location     Type
  5609 ;;  fp              2   29[COMRAM] PTR struct _IO_FILE
  5610 ;;		 -> NULL(0), 
  5611 ;;  d               2   31[COMRAM] int 
  5612 ;; Auto vars:     Size  Location     Type
  5613 ;;  i               2   39[COMRAM] int 
  5614 ;;  w               2   37[COMRAM] int 
  5615 ;;  p               2   35[COMRAM] int 
  5616 ;;  s               1   41[COMRAM] unsigned char 
  5617 ;; Return value:  Size  Location     Type
  5618 ;;                  1    wreg      void 
  5619 ;; Registers used:
  5620 ;;		wreg, fsr1l, fsr1h, fsr2l, fsr2h, status,2, status,0, cstack
  5621 ;; Tracked objects:
  5622 ;;		On entry : 0/0
  5623 ;;		On exit  : 0/0
  5624 ;;		Unchanged: 0/0
  5625 ;; Data sizes:     COMRAM   BANK5   BANK6   BANK7   BANK8   BANK9  BANK10  BANK11  BANK12  BANK13  BANK14  BANK15  BANK1
      +6  BANK17  BANK18  BANK19  BANK20  BANK21  BANK22  BANK23  BANK24  BANK25  BANK26  BANK27  BANK28  BANK29  BANK30  BANK3
      +1  BANK32  BANK33  BANK34  BANK35  BANK36
  5626 ;;      Params:         4       0       0       0       0       0       0       0       0       0       0       0       
      +0       0       0       0       0       0       0       0       0       0       0       0       0       0       0       
      +0       0       0       0       0       0
  5627 ;;      Locals:         9       0       0       0       0       0       0       0       0       0       0       0       
      +0       0       0       0       0       0       0       0       0       0       0       0       0       0       0       
      +0       0       0       0       0       0
  5628 ;;      Temps:          0       0       0       0       0       0       0       0       0       0       0       0       
      +0       0       0       0       0       0       0       0       0       0       0       0       0       0       0       
      +0       0       0       0       0       0
  5629 ;;      Totals:        13       0       0       0       0       0       0       0       0       0       0       0       
      +0       0       0       0       0       0       0       0       0       0       0       0       0       0       0       
      +0       0       0       0       0       0
  5630 ;;Total ram usage:       13 bytes
  5631 ;; Hardware stack levels used: 1
  5632 ;; Hardware stack levels required when called: 7
  5633 ;; This function calls:
  5634 ;;		___awdiv
  5635 ;;		___awmod
  5636 ;;		_abs
  5637 ;;		_pad
  5638 ;; This function is called by:
  5639 ;;		_vfpfcnvrt
  5640 ;; This function uses a non-reentrant model
  5641 ;;
  5642                           
  5643                           	psect	text55
  5644   002692                     __ptext55:
  5645                           	callstack 0
  5646   002692                     _dtoa:
  5647                           	callstack 115
  5648   002692                     
  5649                           ;C:\Program Files\Microchip\xc8\v2.41\pic\sources\c99\common\doprnt.c: 470: static void 
      +                          dtoa(FILE *fp, vfpf_sint_t d);C:\Program Files\Microchip\xc8\v2.41\pic\sources\c99\commo
      +                          n\doprnt.c: 471: {;C:\Program Files\Microchip\xc8\v2.41\pic\sources\c99\common\doprnt.c:
      +                           472:  char s;;C:\Program Files\Microchip\xc8\v2.41\pic\sources\c99\common\doprnt.c: 473
      +                          :     int i, p, w;;C:\Program Files\Microchip\xc8\v2.41\pic\sources\c99\common\doprnt.c:
      +                           476:     s = d < 0 ? 1 : 0;
  5650   002692  BE21               	btfsc	(dtoa@d+1)^(0+1280),7,c
  5651   002694  EF4E  F013         	goto	u1541
  5652   002698  EF51  F013         	goto	u1540
  5653   00269C                     u1541:
  5654   00269C  0E01               	movlw	1
  5655   00269E  EF52  F013         	goto	u1550
  5656   0026A2                     u1540:
  5657   0026A2  0E00               	movlw	0
  5658   0026A4                     u1550:
  5659   0026A4  6E2A               	movwf	dtoa@s^(0+1280),c
  5660   0026A6                     
  5661                           ;C:\Program Files\Microchip\xc8\v2.41\pic\sources\c99\common\doprnt.c: 477:     if (s) {
  5662   0026A6  502A               	movf	dtoa@s^(0+1280),w,c
  5663   0026A8  B4D8               	btfsc	status,2,c
  5664   0026AA  EF59  F013         	goto	u1561
  5665   0026AE  EF5B  F013         	goto	u1560
  5666   0026B2                     u1561:
  5667   0026B2  EF5F  F013         	goto	l3545
  5668   0026B6                     u1560:
  5669   0026B6                     
  5670                           ;C:\Program Files\Microchip\xc8\v2.41\pic\sources\c99\common\doprnt.c: 478:         d = 
      +                          -d;
  5671   0026B6  6C20               	negf	dtoa@d^(0+1280),c
  5672   0026B8  1E21               	comf	(dtoa@d+1)^(0+1280),f,c
  5673   0026BA  B0D8               	btfsc	status,0,c
  5674   0026BC  2A21               	incf	(dtoa@d+1)^(0+1280),f,c
  5675   0026BE                     l3545:
  5676                           
  5677                           ;C:\Program Files\Microchip\xc8\v2.41\pic\sources\c99\common\doprnt.c: 487:     p = (0 <
      +                          = prec) ? prec : 1;
  5678   0026BE  0105               	movlb	5	; () banked
  5679   0026C0  BF78               	btfsc	(_prec+1)& (0+255),7,b
  5680   0026C2  EF67  F013         	goto	u1570
  5681   0026C6  EF65  F013         	goto	u1571
  5682   0026CA                     u1571:
  5683   0026CA  EF6D  F013         	goto	l2168
  5684   0026CE                     u1570:
  5685   0026CE                     
  5686                           ; BSR set to: 5
  5687   0026CE  0E00               	movlw	0
  5688   0026D0  6E25               	movwf	(dtoa@p+1)^(0+1280),c
  5689   0026D2  0E01               	movlw	1
  5690   0026D4  6E24               	movwf	dtoa@p^(0+1280),c
  5691   0026D6  EF71  F013         	goto	l2170
  5692   0026DA                     l2168:
  5693                           
  5694                           ; BSR set to: 5
  5695   0026DA  C577  F524         	movff	_prec,dtoa@p
  5696   0026DE  C578  F525         	movff	_prec+1,dtoa@p+1
  5697   0026E2                     l2170:
  5698                           
  5699                           ; BSR set to: 5
  5700                           ;C:\Program Files\Microchip\xc8\v2.41\pic\sources\c99\common\doprnt.c: 488:     w = widt
      +                          h;
  5701   0026E2  C575  F526         	movff	_width,dtoa@w
  5702   0026E6  C576  F527         	movff	_width+1,dtoa@w+1
  5703   0026EA                     
  5704                           ; BSR set to: 5
  5705                           ;C:\Program Files\Microchip\xc8\v2.41\pic\sources\c99\common\doprnt.c: 489:     if (s
  5706   0026EA  502A               	movf	dtoa@s^(0+1280),w,c
  5707   0026EC  B4D8               	btfsc	status,2,c
  5708   0026EE  EF7B  F013         	goto	u1581
  5709   0026F2  EF7D  F013         	goto	u1580
  5710   0026F6                     u1581:
  5711   0026F6  EF94  F013         	goto	l2171
  5712   0026FA                     u1580:
  5713   0026FA                     
  5714                           ; BSR set to: 5
  5715                           ;C:\Program Files\Microchip\xc8\v2.41\pic\sources\c99\common\doprnt.c: 493:     ) {;C:\P
      +                          rogram Files\Microchip\xc8\v2.41\pic\sources\c99\common\doprnt.c: 494:         --w;
  5716   0026FA  0626               	decf	dtoa@w^(0+1280),f,c
  5717   0026FC  A0D8               	btfss	status,0,c
  5718   0026FE  0627               	decf	(dtoa@w+1)^(0+1280),f,c
  5719   002700                     
  5720                           ; BSR set to: 5
  5721                           ;C:\Program Files\Microchip\xc8\v2.41\pic\sources\c99\common\doprnt.c: 495:   s = s ? '-
      +                          ' : '+';
  5722   002700  502A               	movf	dtoa@s^(0+1280),w,c
  5723   002702  A4D8               	btfss	status,2,c
  5724   002704  EF86  F013         	goto	u1591
  5725   002708  EF88  F013         	goto	u1590
  5726   00270C                     u1591:
  5727   00270C  EF8E  F013         	goto	l3557
  5728   002710                     u1590:
  5729   002710                     
  5730                           ; BSR set to: 5
  5731   002710  0E00               	movlw	0
  5732   002712  6E23               	movwf	(_dtoa$3388+1)^(0+1280),c
  5733   002714  0E2B               	movlw	43
  5734   002716  6E22               	movwf	_dtoa$3388^(0+1280),c
  5735   002718  EF92  F013         	goto	l3559
  5736   00271C                     l3557:
  5737                           
  5738                           ; BSR set to: 5
  5739   00271C  0E00               	movlw	0
  5740   00271E  6E23               	movwf	(_dtoa$3388+1)^(0+1280),c
  5741   002720  0E2D               	movlw	45
  5742   002722  6E22               	movwf	_dtoa$3388^(0+1280),c
  5743   002724                     l3559:
  5744                           
  5745                           ; BSR set to: 5
  5746   002724  C522  F52A         	movff	_dtoa$3388,dtoa@s
  5747   002728                     l2171:
  5748                           
  5749                           ; BSR set to: 5
  5750                           ;C:\Program Files\Microchip\xc8\v2.41\pic\sources\c99\common\doprnt.c: 505:     i = size
      +                          of(dbuf) - 1;
  5751   002728  0E00               	movlw	0
  5752   00272A  6E29               	movwf	(dtoa@i+1)^(0+1280),c
  5753   00272C  0E1F               	movlw	31
  5754   00272E  6E28               	movwf	dtoa@i^(0+1280),c
  5755   002730                     
  5756                           ; BSR set to: 5
  5757                           ;C:\Program Files\Microchip\xc8\v2.41\pic\sources\c99\common\doprnt.c: 506:     dbuf[i] 
      +                          = '\0';
  5758   002730  0E00               	movlw	0
  5759   002732  6F9A               	movwf	(_dbuf+31)& (0+255),b
  5760                           
  5761                           ;C:\Program Files\Microchip\xc8\v2.41\pic\sources\c99\common\doprnt.c: 507:     while (!
      +                          (i < 1) && (d || (0 < p)
  5762   002734  EFCC  F013         	goto	l3573
  5763   002738                     l3563:
  5764                           
  5765                           ;C:\Program Files\Microchip\xc8\v2.41\pic\sources\c99\common\doprnt.c: 511:     )) {;C:\
      +                          Program Files\Microchip\xc8\v2.41\pic\sources\c99\common\doprnt.c: 512:         --i;
  5766   002738  0628               	decf	dtoa@i^(0+1280),f,c
  5767   00273A  A0D8               	btfss	status,0,c
  5768   00273C  0629               	decf	(dtoa@i+1)^(0+1280),f,c
  5769   00273E                     
  5770                           ;C:\Program Files\Microchip\xc8\v2.41\pic\sources\c99\common\doprnt.c: 513:         dbuf
      +                          [i] = (char)((int)'0' + abs(d % 10));
  5771   00273E  0E7B               	movlw	low _dbuf
  5772   002740  2428               	addwf	dtoa@i^(0+1280),w,c
  5773   002742  6ED9               	movwf	fsr2l,c
  5774   002744  0E05               	movlw	high _dbuf
  5775   002746  2029               	addwfc	(dtoa@i+1)^(0+1280),w,c
  5776   002748  6EDA               	movwf	fsr2h,c
  5777   00274A  C520  F503         	movff	dtoa@d,___awmod@dividend
  5778   00274E  C521  F504         	movff	dtoa@d+1,___awmod@dividend+1
  5779   002752  0E00               	movlw	0
  5780   002754  6E06               	movwf	(___awmod@divisor+1)^(0+1280),c
  5781   002756  0E0A               	movlw	10
  5782   002758  6E05               	movwf	___awmod@divisor^(0+1280),c
  5783   00275A  ECA8  F016         	call	___awmod	;wreg free
  5784   00275E  C503  F509         	movff	?___awmod,abs@a
  5785   002762  C504  F50A         	movff	?___awmod+1,abs@a+1
  5786   002766  EC0C  F01B         	call	_abs	;wreg free
  5787   00276A  5009               	movf	?_abs^(0+1280),w,c
  5788   00276C  0F30               	addlw	48
  5789   00276E  6EDF               	movwf	indf2,c
  5790   002770                     
  5791                           ;C:\Program Files\Microchip\xc8\v2.41\pic\sources\c99\common\doprnt.c: 514:         --p;
  5792   002770  0624               	decf	dtoa@p^(0+1280),f,c
  5793   002772  A0D8               	btfss	status,0,c
  5794   002774  0625               	decf	(dtoa@p+1)^(0+1280),f,c
  5795   002776                     
  5796                           ;C:\Program Files\Microchip\xc8\v2.41\pic\sources\c99\common\doprnt.c: 515:         --w;
  5797   002776  0626               	decf	dtoa@w^(0+1280),f,c
  5798   002778  A0D8               	btfss	status,0,c
  5799   00277A  0627               	decf	(dtoa@w+1)^(0+1280),f,c
  5800   00277C                     
  5801                           ;C:\Program Files\Microchip\xc8\v2.41\pic\sources\c99\common\doprnt.c: 516:         d = 
      +                          d / 10;
  5802   00277C  C520  F503         	movff	dtoa@d,___awdiv@dividend
  5803   002780  C521  F504         	movff	dtoa@d+1,___awdiv@dividend+1
  5804   002784  0E00               	movlw	0
  5805   002786  6E06               	movwf	(___awdiv@divisor+1)^(0+1280),c
  5806   002788  0E0A               	movlw	10
  5807   00278A  6E05               	movwf	___awdiv@divisor^(0+1280),c
  5808   00278C  ECEA  F015         	call	___awdiv	;wreg free
  5809   002790  C503  F520         	movff	?___awdiv,dtoa@d
  5810   002794  C504  F521         	movff	?___awdiv+1,dtoa@d+1
  5811   002798                     l3573:
  5812                           
  5813                           ;C:\Program Files\Microchip\xc8\v2.41\pic\sources\c99\common\doprnt.c: 507:     while (!
      +                          (i < 1) && (d || (0 < p)
  5814   002798  BE29               	btfsc	(dtoa@i+1)^(0+1280),7,c
  5815   00279A  EFD7  F013         	goto	u1601
  5816   00279E  5029               	movf	(dtoa@i+1)^(0+1280),w,c
  5817   0027A0  E108               	bnz	u1600
  5818   0027A2  0428               	decf	dtoa@i^(0+1280),w,c
  5819   0027A4  A0D8               	btfss	status,0,c
  5820   0027A6  EFD7  F013         	goto	u1601
  5821   0027AA  EFD9  F013         	goto	u1600
  5822   0027AE                     u1601:
  5823   0027AE  EFEF  F013         	goto	l3579
  5824   0027B2                     u1600:
  5825   0027B2  5020               	movf	dtoa@d^(0+1280),w,c
  5826   0027B4  1021               	iorwf	(dtoa@d+1)^(0+1280),w,c
  5827   0027B6  A4D8               	btfss	status,2,c
  5828   0027B8  EFE0  F013         	goto	u1611
  5829   0027BC  EFE2  F013         	goto	u1610
  5830   0027C0                     u1611:
  5831   0027C0  EF9C  F013         	goto	l3563
  5832   0027C4                     u1610:
  5833   0027C4  BE25               	btfsc	(dtoa@p+1)^(0+1280),7,c
  5834   0027C6  EFEF  F013         	goto	u1620
  5835   0027CA  5025               	movf	(dtoa@p+1)^(0+1280),w,c
  5836   0027CC  E106               	bnz	u1621
  5837   0027CE  0424               	decf	dtoa@p^(0+1280),w,c
  5838   0027D0  B0D8               	btfsc	status,0,c
  5839   0027D2  EFED  F013         	goto	u1621
  5840   0027D6  EFEF  F013         	goto	u1620
  5841   0027DA                     u1621:
  5842   0027DA  EF9C  F013         	goto	l3563
  5843   0027DE                     u1620:
  5844   0027DE                     l3579:
  5845                           
  5846                           ;C:\Program Files\Microchip\xc8\v2.41\pic\sources\c99\common\doprnt.c: 520:     if (s !=
      +                           0) {
  5847   0027DE  502A               	movf	dtoa@s^(0+1280),w,c
  5848   0027E0  B4D8               	btfsc	status,2,c
  5849   0027E2  EFF5  F013         	goto	u1631
  5850   0027E6  EFF7  F013         	goto	u1630
  5851   0027EA                     u1631:
  5852   0027EA  EF02  F014         	goto	l3585
  5853   0027EE                     u1630:
  5854   0027EE                     
  5855                           ;C:\Program Files\Microchip\xc8\v2.41\pic\sources\c99\common\doprnt.c: 521:         --i;
  5856   0027EE  0628               	decf	dtoa@i^(0+1280),f,c
  5857   0027F0  A0D8               	btfss	status,0,c
  5858   0027F2  0629               	decf	(dtoa@i+1)^(0+1280),f,c
  5859   0027F4                     
  5860                           ;C:\Program Files\Microchip\xc8\v2.41\pic\sources\c99\common\doprnt.c: 522:         dbuf
      +                          [i] = s;
  5861   0027F4  0E7B               	movlw	low _dbuf
  5862   0027F6  2428               	addwf	dtoa@i^(0+1280),w,c
  5863   0027F8  6ED9               	movwf	fsr2l,c
  5864   0027FA  0E05               	movlw	high _dbuf
  5865   0027FC  2029               	addwfc	(dtoa@i+1)^(0+1280),w,c
  5866   0027FE  6EDA               	movwf	fsr2h,c
  5867   002800  C52A  F4DF         	movff	dtoa@s,indf2
  5868   002804                     l3585:
  5869                           
  5870                           ;C:\Program Files\Microchip\xc8\v2.41\pic\sources\c99\common\doprnt.c: 526:     return (
      +                          void) pad(fp, &dbuf[i], w);
  5871   002804  C51E  F513         	movff	dtoa@fp,pad@fp
  5872   002808  C51F  F514         	movff	dtoa@fp+1,pad@fp+1
  5873   00280C  0E7B               	movlw	low _dbuf
  5874   00280E  2428               	addwf	dtoa@i^(0+1280),w,c
  5875   002810  6E15               	movwf	pad@buf^(0+1280),c
  5876   002812  0E05               	movlw	high _dbuf
  5877   002814  2029               	addwfc	(dtoa@i+1)^(0+1280),w,c
  5878   002816  6E16               	movwf	(pad@buf+1)^(0+1280),c
  5879   002818  C526  F517         	movff	dtoa@w,pad@p
  5880   00281C  C527  F518         	movff	dtoa@w+1,pad@p+1
  5881   002820  ECE1  F018         	call	_pad	;wreg free
  5882   002824  0012               	return		;funcret
  5883   002826                     __end_of_dtoa:
  5884                           	callstack 0
  5885                           
  5886 ;; *************** function _pad *****************
  5887 ;; Defined at:
  5888 ;;		line 152 in file "C:\Program Files\Microchip\xc8\v2.41\pic\sources\c99\common\doprnt.c"
  5889 ;; Parameters:    Size  Location     Type
  5890 ;;  fp              2   18[COMRAM] PTR struct _IO_FILE
  5891 ;;		 -> NULL(0), 
  5892 ;;  buf             2   20[COMRAM] PTR unsigned char 
  5893 ;;		 -> dbuf(32), 
  5894 ;;  p               2   22[COMRAM] int 
  5895 ;; Auto vars:     Size  Location     Type
  5896 ;;  w               2   27[COMRAM] int 
  5897 ;;  i               2   25[COMRAM] int 
  5898 ;; Return value:  Size  Location     Type
  5899 ;;                  1    wreg      void 
  5900 ;; Registers used:
  5901 ;;		wreg, fsr1l, fsr1h, fsr2l, fsr2h, status,2, status,0, cstack
  5902 ;; Tracked objects:
  5903 ;;		On entry : 0/0
  5904 ;;		On exit  : 0/0
  5905 ;;		Unchanged: 0/0
  5906 ;; Data sizes:     COMRAM   BANK5   BANK6   BANK7   BANK8   BANK9  BANK10  BANK11  BANK12  BANK13  BANK14  BANK15  BANK1
      +6  BANK17  BANK18  BANK19  BANK20  BANK21  BANK22  BANK23  BANK24  BANK25  BANK26  BANK27  BANK28  BANK29  BANK30  BANK3
      +1  BANK32  BANK33  BANK34  BANK35  BANK36
  5907 ;;      Params:         6       0       0       0       0       0       0       0       0       0       0       0       
      +0       0       0       0       0       0       0       0       0       0       0       0       0       0       0       
      +0       0       0       0       0       0
  5908 ;;      Locals:         4       0       0       0       0       0       0       0       0       0       0       0       
      +0       0       0       0       0       0       0       0       0       0       0       0       0       0       0       
      +0       0       0       0       0       0
  5909 ;;      Temps:          1       0       0       0       0       0       0       0       0       0       0       0       
      +0       0       0       0       0       0       0       0       0       0       0       0       0       0       0       
      +0       0       0       0       0       0
  5910 ;;      Totals:        11       0       0       0       0       0       0       0       0       0       0       0       
      +0       0       0       0       0       0       0       0       0       0       0       0       0       0       0       
      +0       0       0       0       0       0
  5911 ;;Total ram usage:       11 bytes
  5912 ;; Hardware stack levels used: 1
  5913 ;; Hardware stack levels required when called: 6
  5914 ;; This function calls:
  5915 ;;		_fputc
  5916 ;;		_fputs
  5917 ;; This function is called by:
  5918 ;;		_dtoa
  5919 ;; This function uses a non-reentrant model
  5920 ;;
  5921                           
  5922                           	psect	text56
  5923   0031C2                     __ptext56:
  5924                           	callstack 0
  5925   0031C2                     _pad:
  5926                           	callstack 115
  5927   0031C2                     
  5928                           ;C:\Program Files\Microchip\xc8\v2.41\pic\sources\c99\common\doprnt.c: 152: static void 
      +                          pad(FILE *fp, char *buf, int p);C:\Program Files\Microchip\xc8\v2.41\pic\sources\c99\com
      +                          mon\doprnt.c: 153: {;C:\Program Files\Microchip\xc8\v2.41\pic\sources\c99\common\doprnt.
      +                          c: 154:     int i, w;;C:\Program Files\Microchip\xc8\v2.41\pic\sources\c99\common\doprnt
      +                          .c: 164:     w = (p < 0) ? 0 : p;
  5929   0031C2  BE18               	btfsc	(pad@p+1)^(0+1280),7,c
  5930   0031C4  EFE6  F018         	goto	u1511
  5931   0031C8  EFE8  F018         	goto	u1510
  5932   0031CC                     u1511:
  5933   0031CC  EFEE  F018         	goto	l3525
  5934   0031D0                     u1510:
  5935   0031D0  C517  F51C         	movff	pad@p,pad@w
  5936   0031D4  C518  F51D         	movff	pad@p+1,pad@w+1
  5937   0031D8  EFF2  F018         	goto	l2159
  5938   0031DC                     l3525:
  5939   0031DC  0E00               	movlw	0
  5940   0031DE  6E1D               	movwf	(pad@w+1)^(0+1280),c
  5941   0031E0  0E00               	movlw	0
  5942   0031E2  6E1C               	movwf	pad@w^(0+1280),c
  5943   0031E4                     l2159:
  5944                           
  5945                           ;C:\Program Files\Microchip\xc8\v2.41\pic\sources\c99\common\doprnt.c: 165:     i = 0;
  5946   0031E4  0E00               	movlw	0
  5947   0031E6  6E1B               	movwf	(pad@i+1)^(0+1280),c
  5948   0031E8  0E00               	movlw	0
  5949   0031EA  6E1A               	movwf	pad@i^(0+1280),c
  5950                           
  5951                           ;C:\Program Files\Microchip\xc8\v2.41\pic\sources\c99\common\doprnt.c: 166:     while (i
      +                           < w) {
  5952   0031EC  EF04  F019         	goto	l3531
  5953   0031F0                     l3527:
  5954                           
  5955                           ;C:\Program Files\Microchip\xc8\v2.41\pic\sources\c99\common\doprnt.c: 167:         fput
      +                          c(' ', fp);
  5956   0031F0  0E00               	movlw	0
  5957   0031F2  6E04               	movwf	(fputc@c+1)^(0+1280),c
  5958   0031F4  0E20               	movlw	32
  5959   0031F6  6E03               	movwf	fputc@c^(0+1280),c
  5960   0031F8  C513  F505         	movff	pad@fp,fputc@fp
  5961   0031FC  C514  F506         	movff	pad@fp+1,fputc@fp+1
  5962   003200  EC85  F015         	call	_fputc	;wreg free
  5963   003204                     
  5964                           ;C:\Program Files\Microchip\xc8\v2.41\pic\sources\c99\common\doprnt.c: 168:         ++i;
  5965   003204  4A1A               	infsnz	pad@i^(0+1280),f,c
  5966   003206  2A1B               	incf	(pad@i+1)^(0+1280),f,c
  5967   003208                     l3531:
  5968                           
  5969                           ;C:\Program Files\Microchip\xc8\v2.41\pic\sources\c99\common\doprnt.c: 166:     while (i
      +                           < w) {
  5970   003208  501C               	movf	pad@w^(0+1280),w,c
  5971   00320A  5C1A               	subwf	pad@i^(0+1280),w,c
  5972   00320C  501B               	movf	(pad@i+1)^(0+1280),w,c
  5973   00320E  0A80               	xorlw	128
  5974   003210  6E19               	movwf	??_pad^(0+1280),c
  5975   003212  501D               	movf	(pad@w+1)^(0+1280),w,c
  5976   003214  0A80               	xorlw	128
  5977   003216  5819               	subwfb	??_pad^(0+1280),w,c
  5978   003218  A0D8               	btfss	status,0,c
  5979   00321A  EF11  F019         	goto	u1521
  5980   00321E  EF13  F019         	goto	u1520
  5981   003222                     u1521:
  5982   003222  EFF8  F018         	goto	l3527
  5983   003226                     u1520:
  5984   003226                     
  5985                           ;C:\Program Files\Microchip\xc8\v2.41\pic\sources\c99\common\doprnt.c: 175:         fput
      +                          s((const char *)buf, fp);
  5986   003226  C515  F50C         	movff	pad@buf,fputs@s
  5987   00322A  C516  F50D         	movff	pad@buf+1,fputs@s+1
  5988   00322E  C513  F50E         	movff	pad@fp,fputs@fp
  5989   003232  C514  F50F         	movff	pad@fp+1,fputs@fp+1
  5990   003236  ECAA  F01A         	call	_fputs	;wreg free
  5991   00323A  0012               	return		;funcret
  5992   00323C                     __end_of_pad:
  5993                           	callstack 0
  5994                           
  5995 ;; *************** function _fputs *****************
  5996 ;; Defined at:
  5997 ;;		line 8 in file "C:\Program Files\Microchip\xc8\v2.41\pic\sources\c99\common\nf_fputs.c"
  5998 ;; Parameters:    Size  Location     Type
  5999 ;;  s               2   11[COMRAM] PTR const unsigned char 
  6000 ;;		 -> dbuf(32), 
  6001 ;;  fp              2   13[COMRAM] PTR struct _IO_FILE
  6002 ;;		 -> NULL(0), 
  6003 ;; Auto vars:     Size  Location     Type
  6004 ;;  i               2   16[COMRAM] int 
  6005 ;;  c               1   15[COMRAM] unsigned char 
  6006 ;; Return value:  Size  Location     Type
  6007 ;;                  2   11[COMRAM] int 
  6008 ;; Registers used:
  6009 ;;		wreg, fsr1l, fsr1h, fsr2l, fsr2h, status,2, status,0, cstack
  6010 ;; Tracked objects:
  6011 ;;		On entry : 0/0
  6012 ;;		On exit  : 0/0
  6013 ;;		Unchanged: 0/0
  6014 ;; Data sizes:     COMRAM   BANK5   BANK6   BANK7   BANK8   BANK9  BANK10  BANK11  BANK12  BANK13  BANK14  BANK15  BANK1
      +6  BANK17  BANK18  BANK19  BANK20  BANK21  BANK22  BANK23  BANK24  BANK25  BANK26  BANK27  BANK28  BANK29  BANK30  BANK3
      +1  BANK32  BANK33  BANK34  BANK35  BANK36
  6015 ;;      Params:         4       0       0       0       0       0       0       0       0       0       0       0       
      +0       0       0       0       0       0       0       0       0       0       0       0       0       0       0       
      +0       0       0       0       0       0
  6016 ;;      Locals:         3       0       0       0       0       0       0       0       0       0       0       0       
      +0       0       0       0       0       0       0       0       0       0       0       0       0       0       0       
      +0       0       0       0       0       0
  6017 ;;      Temps:          0       0       0       0       0       0       0       0       0       0       0       0       
      +0       0       0       0       0       0       0       0       0       0       0       0       0       0       0       
      +0       0       0       0       0       0
  6018 ;;      Totals:         7       0       0       0       0       0       0       0       0       0       0       0       
      +0       0       0       0       0       0       0       0       0       0       0       0       0       0       0       
      +0       0       0       0       0       0
  6019 ;;Total ram usage:        7 bytes
  6020 ;; Hardware stack levels used: 1
  6021 ;; Hardware stack levels required when called: 5
  6022 ;; This function calls:
  6023 ;;		_fputc
  6024 ;; This function is called by:
  6025 ;;		_pad
  6026 ;; This function uses a non-reentrant model
  6027 ;;
  6028                           
  6029                           	psect	text57
  6030   003554                     __ptext57:
  6031                           	callstack 0
  6032   003554                     _fputs:
  6033                           	callstack 115
  6034   003554  0E00               	movlw	0
  6035   003556  6E12               	movwf	(fputs@i+1)^(0+1280),c
  6036   003558  0E00               	movlw	0
  6037   00355A  6E11               	movwf	fputs@i^(0+1280),c
  6038   00355C  EFBB  F01A         	goto	l3439
  6039   003560                     l3435:
  6040   003560  C510  F503         	movff	fputs@c,fputc@c
  6041   003564  6A04               	clrf	(fputc@c+1)^(0+1280),c
  6042   003566  C50E  F505         	movff	fputs@fp,fputc@fp
  6043   00356A  C50F  F506         	movff	fputs@fp+1,fputc@fp+1
  6044   00356E  EC85  F015         	call	_fputc	;wreg free
  6045   003572  4A11               	infsnz	fputs@i^(0+1280),f,c
  6046   003574  2A12               	incf	(fputs@i+1)^(0+1280),f,c
  6047   003576                     l3439:
  6048   003576  5011               	movf	fputs@i^(0+1280),w,c
  6049   003578  240C               	addwf	fputs@s^(0+1280),w,c
  6050   00357A  6ED9               	movwf	fsr2l,c
  6051   00357C  5012               	movf	(fputs@i+1)^(0+1280),w,c
  6052   00357E  200D               	addwfc	(fputs@s+1)^(0+1280),w,c
  6053   003580  6EDA               	movwf	fsr2h,c
  6054   003582  50DF               	movf	indf2,w,c
  6055   003584  6E10               	movwf	fputs@c^(0+1280),c
  6056   003586  5010               	movf	fputs@c^(0+1280),w,c
  6057   003588  A4D8               	btfss	status,2,c
  6058   00358A  EFC9  F01A         	goto	u1381
  6059   00358E  EFCB  F01A         	goto	u1380
  6060   003592                     u1381:
  6061   003592  EFB0  F01A         	goto	l3435
  6062   003596                     u1380:
  6063   003596  0012               	return		;funcret
  6064   003598                     __end_of_fputs:
  6065                           	callstack 0
  6066                           
  6067 ;; *************** function _fputc *****************
  6068 ;; Defined at:
  6069 ;;		line 8 in file "C:\Program Files\Microchip\xc8\v2.41\pic\sources\c99\common\nf_fputc.c"
  6070 ;; Parameters:    Size  Location     Type
  6071 ;;  c               2    2[COMRAM] int 
  6072 ;;  fp              2    4[COMRAM] PTR struct _IO_FILE
  6073 ;;		 -> NULL(0), 
  6074 ;; Auto vars:     Size  Location     Type
  6075 ;;		None
  6076 ;; Return value:  Size  Location     Type
  6077 ;;                  2    2[COMRAM] int 
  6078 ;; Registers used:
  6079 ;;		wreg, fsr1l, fsr1h, fsr2l, fsr2h, status,2, status,0, cstack
  6080 ;; Tracked objects:
  6081 ;;		On entry : 0/0
  6082 ;;		On exit  : 0/0
  6083 ;;		Unchanged: 0/0
  6084 ;; Data sizes:     COMRAM   BANK5   BANK6   BANK7   BANK8   BANK9  BANK10  BANK11  BANK12  BANK13  BANK14  BANK15  BANK1
      +6  BANK17  BANK18  BANK19  BANK20  BANK21  BANK22  BANK23  BANK24  BANK25  BANK26  BANK27  BANK28  BANK29  BANK30  BANK3
      +1  BANK32  BANK33  BANK34  BANK35  BANK36
  6085 ;;      Params:         4       0       0       0       0       0       0       0       0       0       0       0       
      +0       0       0       0       0       0       0       0       0       0       0       0       0       0       0       
      +0       0       0       0       0       0
  6086 ;;      Locals:         0       0       0       0       0       0       0       0       0       0       0       0       
      +0       0       0       0       0       0       0       0       0       0       0       0       0       0       0       
      +0       0       0       0       0       0
  6087 ;;      Temps:          5       0       0       0       0       0       0       0       0       0       0       0       
      +0       0       0       0       0       0       0       0       0       0       0       0       0       0       0       
      +0       0       0       0       0       0
  6088 ;;      Totals:         9       0       0       0       0       0       0       0       0       0       0       0       
      +0       0       0       0       0       0       0       0       0       0       0       0       0       0       0       
      +0       0       0       0       0       0
  6089 ;;Total ram usage:        9 bytes
  6090 ;; Hardware stack levels used: 1
  6091 ;; Hardware stack levels required when called: 4
  6092 ;; This function calls:
  6093 ;;		_putch
  6094 ;; This function is called by:
  6095 ;;		_pad
  6096 ;;		_vfpfcnvrt
  6097 ;;		_fputs
  6098 ;; This function uses a non-reentrant model
  6099 ;;
  6100                           
  6101                           	psect	text58
  6102   002B0A                     __ptext58:
  6103                           	callstack 0
  6104   002B0A                     _fputc:
  6105                           	callstack 118
  6106   002B0A  5005               	movf	fputc@fp^(0+1280),w,c
  6107   002B0C  1006               	iorwf	(fputc@fp+1)^(0+1280),w,c
  6108   002B0E  B4D8               	btfsc	status,2,c
  6109   002B10  EF8C  F015         	goto	u1341
  6110   002B14  EF8E  F015         	goto	u1340
  6111   002B18                     u1341:
  6112   002B18  EF97  F015         	goto	l3423
  6113   002B1C                     u1340:
  6114   002B1C  5005               	movf	fputc@fp^(0+1280),w,c
  6115   002B1E  1006               	iorwf	(fputc@fp+1)^(0+1280),w,c
  6116   002B20  A4D8               	btfss	status,2,c
  6117   002B22  EF95  F015         	goto	u1351
  6118   002B26  EF97  F015         	goto	u1350
  6119   002B2A                     u1351:
  6120   002B2A  EF9C  F015         	goto	l3425
  6121   002B2E                     u1350:
  6122   002B2E                     l3423:
  6123   002B2E  5003               	movf	fputc@c^(0+1280),w,c
  6124   002B30  ECFA  F01C         	call	_putch
  6125   002B34  EFE9  F015         	goto	l2214
  6126   002B38                     l3425:
  6127   002B38  EE20 F00A          	lfsr	2,10
  6128   002B3C  5005               	movf	fputc@fp^(0+1280),w,c
  6129   002B3E  26D9               	addwf	fsr2l,f,c
  6130   002B40  5006               	movf	(fputc@fp+1)^(0+1280),w,c
  6131   002B42  22DA               	addwfc	fsr2h,f,c
  6132   002B44  50DE               	movf	postinc2,w,c
  6133   002B46  10DE               	iorwf	postinc2,w,c
  6134   002B48  B4D8               	btfsc	status,2,c
  6135   002B4A  EFA9  F015         	goto	u1361
  6136   002B4E  EFAB  F015         	goto	u1360
  6137   002B52                     u1361:
  6138   002B52  EFC6  F015         	goto	l3429
  6139   002B56                     u1360:
  6140   002B56  EE20 F00A          	lfsr	2,10
  6141   002B5A  5005               	movf	fputc@fp^(0+1280),w,c
  6142   002B5C  26D9               	addwf	fsr2l,f,c
  6143   002B5E  5006               	movf	(fputc@fp+1)^(0+1280),w,c
  6144   002B60  22DA               	addwfc	fsr2h,f,c
  6145   002B62  EE10 F003          	lfsr	1,3
  6146   002B66  5005               	movf	fputc@fp^(0+1280),w,c
  6147   002B68  26E1               	addwf	fsr1l,f,c
  6148   002B6A  5006               	movf	(fputc@fp+1)^(0+1280),w,c
  6149   002B6C  22E2               	addwfc	fsr1h,f,c
  6150   002B6E  50DE               	movf	postinc2,w,c
  6151   002B70  5CE6               	subwf	postinc1,w,c
  6152   002B72  50E6               	movf	postinc1,w,c
  6153   002B74  0A80               	xorlw	128
  6154   002B76  6E0B               	movwf	(??_fputc+4)^(0+1280),c
  6155   002B78  50DE               	movf	postinc2,w,c
  6156   002B7A  0A80               	xorlw	128
  6157   002B7C  580B               	subwfb	(??_fputc+4)^(0+1280),w,c
  6158   002B7E  B0D8               	btfsc	status,0,c
  6159   002B80  EFC4  F015         	goto	u1371
  6160   002B84  EFC6  F015         	goto	u1370
  6161   002B88                     u1371:
  6162   002B88  EFE9  F015         	goto	l2214
  6163   002B8C                     u1370:
  6164   002B8C                     l3429:
  6165   002B8C  EE20 F003          	lfsr	2,3
  6166   002B90  5005               	movf	fputc@fp^(0+1280),w,c
  6167   002B92  26D9               	addwf	fsr2l,f,c
  6168   002B94  5006               	movf	(fputc@fp+1)^(0+1280),w,c
  6169   002B96  22DA               	addwfc	fsr2h,f,c
  6170   002B98  C4DE F507          	movff	postinc2,??_fputc
  6171   002B9C  C4DD F508          	movff	postdec2,??_fputc+1
  6172   002BA0  C505  F4D9         	movff	fputc@fp,fsr2l
  6173   002BA4  C506  F4DA         	movff	fputc@fp+1,fsr2h
  6174   002BA8  C4DE F509          	movff	postinc2,??_fputc+2
  6175   002BAC  C4DD F50A          	movff	postdec2,??_fputc+3
  6176   002BB0  5007               	movf	??_fputc^(0+1280),w,c
  6177   002BB2  2409               	addwf	(??_fputc+2)^(0+1280),w,c
  6178   002BB4  6ED9               	movwf	fsr2l,c
  6179   002BB6  5008               	movf	(??_fputc+1)^(0+1280),w,c
  6180   002BB8  200A               	addwfc	(??_fputc+3)^(0+1280),w,c
  6181   002BBA  6EDA               	movwf	fsr2h,c
  6182   002BBC  C503  F4DF         	movff	fputc@c,indf2
  6183   002BC0  EE20 F003          	lfsr	2,3
  6184   002BC4  5005               	movf	fputc@fp^(0+1280),w,c
  6185   002BC6  26D9               	addwf	fsr2l,f,c
  6186   002BC8  5006               	movf	(fputc@fp+1)^(0+1280),w,c
  6187   002BCA  22DA               	addwfc	fsr2h,f,c
  6188   002BCC  2ADE               	incf	postinc2,f,c
  6189   002BCE  0E00               	movlw	0
  6190   002BD0  22DD               	addwfc	postdec2,f,c
  6191   002BD2                     l2214:
  6192   002BD2  0012               	return		;funcret
  6193   002BD4                     __end_of_fputc:
  6194                           	callstack 0
  6195                           
  6196 ;; *************** function _putch *****************
  6197 ;; Defined at:
  6198 ;;		line 7 in file "C:\Program Files\Microchip\xc8\v2.41\pic\sources\c99\common\putch.c"
  6199 ;; Parameters:    Size  Location     Type
  6200 ;;  c               1    wreg     unsigned char 
  6201 ;; Auto vars:     Size  Location     Type
  6202 ;;  c               1    0[COMRAM] unsigned char 
  6203 ;; Return value:  Size  Location     Type
  6204 ;;                  1    wreg      void 
  6205 ;; Registers used:
  6206 ;;		wreg
  6207 ;; Tracked objects:
  6208 ;;		On entry : 0/0
  6209 ;;		On exit  : 0/0
  6210 ;;		Unchanged: 0/0
  6211 ;; Data sizes:     COMRAM   BANK5   BANK6   BANK7   BANK8   BANK9  BANK10  BANK11  BANK12  BANK13  BANK14  BANK15  BANK1
      +6  BANK17  BANK18  BANK19  BANK20  BANK21  BANK22  BANK23  BANK24  BANK25  BANK26  BANK27  BANK28  BANK29  BANK30  BANK3
      +1  BANK32  BANK33  BANK34  BANK35  BANK36
  6212 ;;      Params:         0       0       0       0       0       0       0       0       0       0       0       0       
      +0       0       0       0       0       0       0       0       0       0       0       0       0       0       0       
      +0       0       0       0       0       0
  6213 ;;      Locals:         0       0       0       0       0       0       0       0       0       0       0       0       
      +0       0       0       0       0       0       0       0       0       0       0       0       0       0       0       
      +0       0       0       0       0       0
  6214 ;;      Temps:          0       0       0       0       0       0       0       0       0       0       0       0       
      +0       0       0       0       0       0       0       0       0       0       0       0       0       0       0       
      +0       0       0       0       0       0
  6215 ;;      Totals:         0       0       0       0       0       0       0       0       0       0       0       0       
      +0       0       0       0       0       0       0       0       0       0       0       0       0       0       0       
      +0       0       0       0       0       0
  6216 ;;Total ram usage:        0 bytes
  6217 ;; Hardware stack levels used: 1
  6218 ;; Hardware stack levels required when called: 3
  6219 ;; This function calls:
  6220 ;;		Nothing
  6221 ;; This function is called by:
  6222 ;;		_fputc
  6223 ;; This function uses a non-reentrant model
  6224 ;;
  6225                           
  6226                           	psect	text59
  6227   0039F4                     __ptext59:
  6228                           	callstack 0
  6229   0039F4                     _putch:
  6230                           	callstack 118
  6231   0039F4  0012               	return		;funcret
  6232   0039F6                     __end_of_putch:
  6233                           	callstack 0
  6234                           
  6235 ;; *************** function _abs *****************
  6236 ;; Defined at:
  6237 ;;		line 1 in file "C:\Program Files\Microchip\xc8\v2.41\pic\sources\c99\common\abs.c"
  6238 ;; Parameters:    Size  Location     Type
  6239 ;;  a               2    8[COMRAM] int 
  6240 ;; Auto vars:     Size  Location     Type
  6241 ;;		None
  6242 ;; Return value:  Size  Location     Type
  6243 ;;                  2    8[COMRAM] int 
  6244 ;; Registers used:
  6245 ;;		wreg, status,2, status,0
  6246 ;; Tracked objects:
  6247 ;;		On entry : 0/0
  6248 ;;		On exit  : 0/0
  6249 ;;		Unchanged: 0/0
  6250 ;; Data sizes:     COMRAM   BANK5   BANK6   BANK7   BANK8   BANK9  BANK10  BANK11  BANK12  BANK13  BANK14  BANK15  BANK1
      +6  BANK17  BANK18  BANK19  BANK20  BANK21  BANK22  BANK23  BANK24  BANK25  BANK26  BANK27  BANK28  BANK29  BANK30  BANK3
      +1  BANK32  BANK33  BANK34  BANK35  BANK36
  6251 ;;      Params:         2       0       0       0       0       0       0       0       0       0       0       0       
      +0       0       0       0       0       0       0       0       0       0       0       0       0       0       0       
      +0       0       0       0       0       0
  6252 ;;      Locals:         0       0       0       0       0       0       0       0       0       0       0       0       
      +0       0       0       0       0       0       0       0       0       0       0       0       0       0       0       
      +0       0       0       0       0       0
  6253 ;;      Temps:          2       0       0       0       0       0       0       0       0       0       0       0       
      +0       0       0       0       0       0       0       0       0       0       0       0       0       0       0       
      +0       0       0       0       0       0
  6254 ;;      Totals:         4       0       0       0       0       0       0       0       0       0       0       0       
      +0       0       0       0       0       0       0       0       0       0       0       0       0       0       0       
      +0       0       0       0       0       0
  6255 ;;Total ram usage:        4 bytes
  6256 ;; Hardware stack levels used: 1
  6257 ;; Hardware stack levels required when called: 3
  6258 ;; This function calls:
  6259 ;;		Nothing
  6260 ;; This function is called by:
  6261 ;;		_dtoa
  6262 ;; This function uses a non-reentrant model
  6263 ;;
  6264                           
  6265                           	psect	text60
  6266   003618                     __ptext60:
  6267                           	callstack 0
  6268   003618                     _abs:
  6269                           	callstack 118
  6270   003618  BE0A               	btfsc	(abs@a+1)^(0+1280),7,c
  6271   00361A  EF19  F01B         	goto	u1530
  6272   00361E  500A               	movf	(abs@a+1)^(0+1280),w,c
  6273   003620  E106               	bnz	u1531
  6274   003622  0409               	decf	abs@a^(0+1280),w,c
  6275   003624  B0D8               	btfsc	status,0,c
  6276   003626  EF17  F01B         	goto	u1531
  6277   00362A  EF19  F01B         	goto	u1530
  6278   00362E                     u1531:
  6279   00362E  EF27  F01B         	goto	l2199
  6280   003632                     u1530:
  6281   003632  C509  F50B         	movff	abs@a,??_abs
  6282   003636  C50A  F50C         	movff	abs@a+1,??_abs+1
  6283   00363A  1E0B               	comf	??_abs^(0+1280),f,c
  6284   00363C  1E0C               	comf	(??_abs+1)^(0+1280),f,c
  6285   00363E  4A0B               	infsnz	??_abs^(0+1280),f,c
  6286   003640  2A0C               	incf	(??_abs+1)^(0+1280),f,c
  6287   003642  C50B  F509         	movff	??_abs,?_abs
  6288   003646  C50C  F50A         	movff	??_abs+1,?_abs+1
  6289   00364A  EF2B  F01B         	goto	l2202
  6290   00364E                     l2199:
  6291   00364E  C509  F509         	movff	abs@a,?_abs
  6292   003652  C50A  F50A         	movff	abs@a+1,?_abs+1
  6293   003656                     l2202:
  6294   003656  0012               	return		;funcret
  6295   003658                     __end_of_abs:
  6296                           	callstack 0
  6297                           
  6298 ;; *************** function ___awmod *****************
  6299 ;; Defined at:
  6300 ;;		line 7 in file "C:\Program Files\Microchip\xc8\v2.41\pic\sources\c99\common\awmod.c"
  6301 ;; Parameters:    Size  Location     Type
  6302 ;;  dividend        2    2[COMRAM] int 
  6303 ;;  divisor         2    4[COMRAM] int 
  6304 ;; Auto vars:     Size  Location     Type
  6305 ;;  sign            1    7[COMRAM] unsigned char 
  6306 ;;  counter         1    6[COMRAM] unsigned char 
  6307 ;; Return value:  Size  Location     Type
  6308 ;;                  2    2[COMRAM] int 
  6309 ;; Registers used:
  6310 ;;		wreg, status,2, status,0
  6311 ;; Tracked objects:
  6312 ;;		On entry : 0/0
  6313 ;;		On exit  : 0/0
  6314 ;;		Unchanged: 0/0
  6315 ;; Data sizes:     COMRAM   BANK5   BANK6   BANK7   BANK8   BANK9  BANK10  BANK11  BANK12  BANK13  BANK14  BANK15  BANK1
      +6  BANK17  BANK18  BANK19  BANK20  BANK21  BANK22  BANK23  BANK24  BANK25  BANK26  BANK27  BANK28  BANK29  BANK30  BANK3
      +1  BANK32  BANK33  BANK34  BANK35  BANK36
  6316 ;;      Params:         4       0       0       0       0       0       0       0       0       0       0       0       
      +0       0       0       0       0       0       0       0       0       0       0       0       0       0       0       
      +0       0       0       0       0       0
  6317 ;;      Locals:         2       0       0       0       0       0       0       0       0       0       0       0       
      +0       0       0       0       0       0       0       0       0       0       0       0       0       0       0       
      +0       0       0       0       0       0
  6318 ;;      Temps:          0       0       0       0       0       0       0       0       0       0       0       0       
      +0       0       0       0       0       0       0       0       0       0       0       0       0       0       0       
      +0       0       0       0       0       0
  6319 ;;      Totals:         6       0       0       0       0       0       0       0       0       0       0       0       
      +0       0       0       0       0       0       0       0       0       0       0       0       0       0       0       
      +0       0       0       0       0       0
  6320 ;;Total ram usage:        6 bytes
  6321 ;; Hardware stack levels used: 1
  6322 ;; Hardware stack levels required when called: 3
  6323 ;; This function calls:
  6324 ;;		Nothing
  6325 ;; This function is called by:
  6326 ;;		_dtoa
  6327 ;; This function uses a non-reentrant model
  6328 ;;
  6329                           
  6330                           	psect	text61
  6331   002D50                     __ptext61:
  6332                           	callstack 0
  6333   002D50                     ___awmod:
  6334                           	callstack 118
  6335   002D50  0E00               	movlw	0
  6336   002D52  6E08               	movwf	___awmod@sign^(0+1280),c
  6337   002D54  BE04               	btfsc	(___awmod@dividend+1)^(0+1280),7,c
  6338   002D56  EFB1  F016         	goto	u1450
  6339   002D5A  EFAF  F016         	goto	u1451
  6340   002D5E                     u1451:
  6341   002D5E  EFB7  F016         	goto	l3493
  6342   002D62                     u1450:
  6343   002D62  6C03               	negf	___awmod@dividend^(0+1280),c
  6344   002D64  1E04               	comf	(___awmod@dividend+1)^(0+1280),f,c
  6345   002D66  B0D8               	btfsc	status,0,c
  6346   002D68  2A04               	incf	(___awmod@dividend+1)^(0+1280),f,c
  6347   002D6A  0E01               	movlw	1
  6348   002D6C  6E08               	movwf	___awmod@sign^(0+1280),c
  6349   002D6E                     l3493:
  6350   002D6E  BE06               	btfsc	(___awmod@divisor+1)^(0+1280),7,c
  6351   002D70  EFBE  F016         	goto	u1460
  6352   002D74  EFBC  F016         	goto	u1461
  6353   002D78                     u1461:
  6354   002D78  EFC2  F016         	goto	l3497
  6355   002D7C                     u1460:
  6356   002D7C  6C05               	negf	___awmod@divisor^(0+1280),c
  6357   002D7E  1E06               	comf	(___awmod@divisor+1)^(0+1280),f,c
  6358   002D80  B0D8               	btfsc	status,0,c
  6359   002D82  2A06               	incf	(___awmod@divisor+1)^(0+1280),f,c
  6360   002D84                     l3497:
  6361   002D84  5005               	movf	___awmod@divisor^(0+1280),w,c
  6362   002D86  1006               	iorwf	(___awmod@divisor+1)^(0+1280),w,c
  6363   002D88  B4D8               	btfsc	status,2,c
  6364   002D8A  EFC9  F016         	goto	u1471
  6365   002D8E  EFCB  F016         	goto	u1470
  6366   002D92                     u1471:
  6367   002D92  EFEF  F016         	goto	l3513
  6368   002D96                     u1470:
  6369   002D96  0E01               	movlw	1
  6370   002D98  6E07               	movwf	___awmod@counter^(0+1280),c
  6371   002D9A  EFD3  F016         	goto	l3503
  6372   002D9E                     l3501:
  6373   002D9E  90D8               	bcf	status,0,c
  6374   002DA0  3605               	rlcf	___awmod@divisor^(0+1280),f,c
  6375   002DA2  3606               	rlcf	(___awmod@divisor+1)^(0+1280),f,c
  6376   002DA4  2A07               	incf	___awmod@counter^(0+1280),f,c
  6377   002DA6                     l3503:
  6378   002DA6  AE06               	btfss	(___awmod@divisor+1)^(0+1280),7,c
  6379   002DA8  EFD8  F016         	goto	u1481
  6380   002DAC  EFDA  F016         	goto	u1480
  6381   002DB0                     u1481:
  6382   002DB0  EFCF  F016         	goto	l3501
  6383   002DB4                     u1480:
  6384   002DB4                     l3505:
  6385   002DB4  5005               	movf	___awmod@divisor^(0+1280),w,c
  6386   002DB6  5C03               	subwf	___awmod@dividend^(0+1280),w,c
  6387   002DB8  5006               	movf	(___awmod@divisor+1)^(0+1280),w,c
  6388   002DBA  5804               	subwfb	(___awmod@dividend+1)^(0+1280),w,c
  6389   002DBC  A0D8               	btfss	status,0,c
  6390   002DBE  EFE3  F016         	goto	u1491
  6391   002DC2  EFE5  F016         	goto	u1490
  6392   002DC6                     u1491:
  6393   002DC6  EFE9  F016         	goto	l3509
  6394   002DCA                     u1490:
  6395   002DCA  5005               	movf	___awmod@divisor^(0+1280),w,c
  6396   002DCC  5E03               	subwf	___awmod@dividend^(0+1280),f,c
  6397   002DCE  5006               	movf	(___awmod@divisor+1)^(0+1280),w,c
  6398   002DD0  5A04               	subwfb	(___awmod@dividend+1)^(0+1280),f,c
  6399   002DD2                     l3509:
  6400   002DD2  90D8               	bcf	status,0,c
  6401   002DD4  3206               	rrcf	(___awmod@divisor+1)^(0+1280),f,c
  6402   002DD6  3205               	rrcf	___awmod@divisor^(0+1280),f,c
  6403   002DD8  2E07               	decfsz	___awmod@counter^(0+1280),f,c
  6404   002DDA  EFDA  F016         	goto	l3505
  6405   002DDE                     l3513:
  6406   002DDE  5008               	movf	___awmod@sign^(0+1280),w,c
  6407   002DE0  B4D8               	btfsc	status,2,c
  6408   002DE2  EFF5  F016         	goto	u1501
  6409   002DE6  EFF7  F016         	goto	u1500
  6410   002DEA                     u1501:
  6411   002DEA  EFFB  F016         	goto	l3517
  6412   002DEE                     u1500:
  6413   002DEE  6C03               	negf	___awmod@dividend^(0+1280),c
  6414   002DF0  1E04               	comf	(___awmod@dividend+1)^(0+1280),f,c
  6415   002DF2  B0D8               	btfsc	status,0,c
  6416   002DF4  2A04               	incf	(___awmod@dividend+1)^(0+1280),f,c
  6417   002DF6                     l3517:
  6418   002DF6  C503  F503         	movff	___awmod@dividend,?___awmod
  6419   002DFA  C504  F504         	movff	___awmod@dividend+1,?___awmod+1
  6420   002DFE  0012               	return		;funcret
  6421   002E00                     __end_of___awmod:
  6422                           	callstack 0
  6423                           
  6424 ;; *************** function ___awdiv *****************
  6425 ;; Defined at:
  6426 ;;		line 7 in file "C:\Program Files\Microchip\xc8\v2.41\pic\sources\c99\common\awdiv.c"
  6427 ;; Parameters:    Size  Location     Type
  6428 ;;  dividend        2    2[COMRAM] int 
  6429 ;;  divisor         2    4[COMRAM] int 
  6430 ;; Auto vars:     Size  Location     Type
  6431 ;;  quotient        2    8[COMRAM] int 
  6432 ;;  sign            1    7[COMRAM] unsigned char 
  6433 ;;  counter         1    6[COMRAM] unsigned char 
  6434 ;; Return value:  Size  Location     Type
  6435 ;;                  2    2[COMRAM] int 
  6436 ;; Registers used:
  6437 ;;		wreg, status,2, status,0
  6438 ;; Tracked objects:
  6439 ;;		On entry : 0/0
  6440 ;;		On exit  : 0/0
  6441 ;;		Unchanged: 0/0
  6442 ;; Data sizes:     COMRAM   BANK5   BANK6   BANK7   BANK8   BANK9  BANK10  BANK11  BANK12  BANK13  BANK14  BANK15  BANK1
      +6  BANK17  BANK18  BANK19  BANK20  BANK21  BANK22  BANK23  BANK24  BANK25  BANK26  BANK27  BANK28  BANK29  BANK30  BANK3
      +1  BANK32  BANK33  BANK34  BANK35  BANK36
  6443 ;;      Params:         4       0       0       0       0       0       0       0       0       0       0       0       
      +0       0       0       0       0       0       0       0       0       0       0       0       0       0       0       
      +0       0       0       0       0       0
  6444 ;;      Locals:         4       0       0       0       0       0       0       0       0       0       0       0       
      +0       0       0       0       0       0       0       0       0       0       0       0       0       0       0       
      +0       0       0       0       0       0
  6445 ;;      Temps:          0       0       0       0       0       0       0       0       0       0       0       0       
      +0       0       0       0       0       0       0       0       0       0       0       0       0       0       0       
      +0       0       0       0       0       0
  6446 ;;      Totals:         8       0       0       0       0       0       0       0       0       0       0       0       
      +0       0       0       0       0       0       0       0       0       0       0       0       0       0       0       
      +0       0       0       0       0       0
  6447 ;;Total ram usage:        8 bytes
  6448 ;; Hardware stack levels used: 1
  6449 ;; Hardware stack levels required when called: 3
  6450 ;; This function calls:
  6451 ;;		Nothing
  6452 ;; This function is called by:
  6453 ;;		_dtoa
  6454 ;; This function uses a non-reentrant model
  6455 ;;
  6456                           
  6457                           	psect	text62
  6458   002BD4                     __ptext62:
  6459                           	callstack 0
  6460   002BD4                     ___awdiv:
  6461                           	callstack 118
  6462   002BD4  0E00               	movlw	0
  6463   002BD6  6E08               	movwf	___awdiv@sign^(0+1280),c
  6464   002BD8  BE06               	btfsc	(___awdiv@divisor+1)^(0+1280),7,c
  6465   002BDA  EFF3  F015         	goto	u1390
  6466   002BDE  EFF1  F015         	goto	u1391
  6467   002BE2                     u1391:
  6468   002BE2  EFF9  F015         	goto	l3449
  6469   002BE6                     u1390:
  6470   002BE6  6C05               	negf	___awdiv@divisor^(0+1280),c
  6471   002BE8  1E06               	comf	(___awdiv@divisor+1)^(0+1280),f,c
  6472   002BEA  B0D8               	btfsc	status,0,c
  6473   002BEC  2A06               	incf	(___awdiv@divisor+1)^(0+1280),f,c
  6474   002BEE  0E01               	movlw	1
  6475   002BF0  6E08               	movwf	___awdiv@sign^(0+1280),c
  6476   002BF2                     l3449:
  6477   002BF2  BE04               	btfsc	(___awdiv@dividend+1)^(0+1280),7,c
  6478   002BF4  EF00  F016         	goto	u1400
  6479   002BF8  EFFE  F015         	goto	u1401
  6480   002BFC                     u1401:
  6481   002BFC  EF06  F016         	goto	l3455
  6482   002C00                     u1400:
  6483   002C00  6C03               	negf	___awdiv@dividend^(0+1280),c
  6484   002C02  1E04               	comf	(___awdiv@dividend+1)^(0+1280),f,c
  6485   002C04  B0D8               	btfsc	status,0,c
  6486   002C06  2A04               	incf	(___awdiv@dividend+1)^(0+1280),f,c
  6487   002C08  0E01               	movlw	1
  6488   002C0A  1A08               	xorwf	___awdiv@sign^(0+1280),f,c
  6489   002C0C                     l3455:
  6490   002C0C  0E00               	movlw	0
  6491   002C0E  6E0A               	movwf	(___awdiv@quotient+1)^(0+1280),c
  6492   002C10  0E00               	movlw	0
  6493   002C12  6E09               	movwf	___awdiv@quotient^(0+1280),c
  6494   002C14  5005               	movf	___awdiv@divisor^(0+1280),w,c
  6495   002C16  1006               	iorwf	(___awdiv@divisor+1)^(0+1280),w,c
  6496   002C18  B4D8               	btfsc	status,2,c
  6497   002C1A  EF11  F016         	goto	u1411
  6498   002C1E  EF13  F016         	goto	u1410
  6499   002C22                     u1411:
  6500   002C22  EF3B  F016         	goto	l3477
  6501   002C26                     u1410:
  6502   002C26  0E01               	movlw	1
  6503   002C28  6E07               	movwf	___awdiv@counter^(0+1280),c
  6504   002C2A  EF1B  F016         	goto	l3463
  6505   002C2E                     l3461:
  6506   002C2E  90D8               	bcf	status,0,c
  6507   002C30  3605               	rlcf	___awdiv@divisor^(0+1280),f,c
  6508   002C32  3606               	rlcf	(___awdiv@divisor+1)^(0+1280),f,c
  6509   002C34  2A07               	incf	___awdiv@counter^(0+1280),f,c
  6510   002C36                     l3463:
  6511   002C36  AE06               	btfss	(___awdiv@divisor+1)^(0+1280),7,c
  6512   002C38  EF20  F016         	goto	u1421
  6513   002C3C  EF22  F016         	goto	u1420
  6514   002C40                     u1421:
  6515   002C40  EF17  F016         	goto	l3461
  6516   002C44                     u1420:
  6517   002C44                     l3465:
  6518   002C44  90D8               	bcf	status,0,c
  6519   002C46  3609               	rlcf	___awdiv@quotient^(0+1280),f,c
  6520   002C48  360A               	rlcf	(___awdiv@quotient+1)^(0+1280),f,c
  6521   002C4A  5005               	movf	___awdiv@divisor^(0+1280),w,c
  6522   002C4C  5C03               	subwf	___awdiv@dividend^(0+1280),w,c
  6523   002C4E  5006               	movf	(___awdiv@divisor+1)^(0+1280),w,c
  6524   002C50  5804               	subwfb	(___awdiv@dividend+1)^(0+1280),w,c
  6525   002C52  A0D8               	btfss	status,0,c
  6526   002C54  EF2E  F016         	goto	u1431
  6527   002C58  EF30  F016         	goto	u1430
  6528   002C5C                     u1431:
  6529   002C5C  EF35  F016         	goto	l3473
  6530   002C60                     u1430:
  6531   002C60  5005               	movf	___awdiv@divisor^(0+1280),w,c
  6532   002C62  5E03               	subwf	___awdiv@dividend^(0+1280),f,c
  6533   002C64  5006               	movf	(___awdiv@divisor+1)^(0+1280),w,c
  6534   002C66  5A04               	subwfb	(___awdiv@dividend+1)^(0+1280),f,c
  6535   002C68  8009               	bsf	___awdiv@quotient^(0+1280),0,c
  6536   002C6A                     l3473:
  6537   002C6A  90D8               	bcf	status,0,c
  6538   002C6C  3206               	rrcf	(___awdiv@divisor+1)^(0+1280),f,c
  6539   002C6E  3205               	rrcf	___awdiv@divisor^(0+1280),f,c
  6540   002C70  2E07               	decfsz	___awdiv@counter^(0+1280),f,c
  6541   002C72  EF22  F016         	goto	l3465
  6542   002C76                     l3477:
  6543   002C76  5008               	movf	___awdiv@sign^(0+1280),w,c
  6544   002C78  B4D8               	btfsc	status,2,c
  6545   002C7A  EF41  F016         	goto	u1441
  6546   002C7E  EF43  F016         	goto	u1440
  6547   002C82                     u1441:
  6548   002C82  EF47  F016         	goto	l3481
  6549   002C86                     u1440:
  6550   002C86  6C09               	negf	___awdiv@quotient^(0+1280),c
  6551   002C88  1E0A               	comf	(___awdiv@quotient+1)^(0+1280),f,c
  6552   002C8A  B0D8               	btfsc	status,0,c
  6553   002C8C  2A0A               	incf	(___awdiv@quotient+1)^(0+1280),f,c
  6554   002C8E                     l3481:
  6555   002C8E  C509  F503         	movff	___awdiv@quotient,?___awdiv
  6556   002C92  C50A  F504         	movff	___awdiv@quotient+1,?___awdiv+1
  6557   002C96  0012               	return		;funcret
  6558   002C98                     __end_of___awdiv:
  6559                           	callstack 0
  6560                           
  6561 ;; *************** function _ADCC_GetSingleConversion *****************
  6562 ;; Defined at:
  6563 ;;		line 121 in file "mcc_generated_files/adc/src/adcc.c"
  6564 ;; Parameters:    Size  Location     Type
  6565 ;;  channel         1    wreg     enum E16448
  6566 ;; Auto vars:     Size  Location     Type
  6567 ;;  channel         1    6[COMRAM] enum E16448
  6568 ;; Return value:  Size  Location     Type
  6569 ;;                  2    2[COMRAM] unsigned short 
  6570 ;; Registers used:
  6571 ;;		wreg, status,2, status,0
  6572 ;; Tracked objects:
  6573 ;;		On entry : 0/0
  6574 ;;		On exit  : 0/0
  6575 ;;		Unchanged: 0/0
  6576 ;; Data sizes:     COMRAM   BANK5   BANK6   BANK7   BANK8   BANK9  BANK10  BANK11  BANK12  BANK13  BANK14  BANK15  BANK1
      +6  BANK17  BANK18  BANK19  BANK20  BANK21  BANK22  BANK23  BANK24  BANK25  BANK26  BANK27  BANK28  BANK29  BANK30  BANK3
      +1  BANK32  BANK33  BANK34  BANK35  BANK36
  6577 ;;      Params:         2       0       0       0       0       0       0       0       0       0       0       0       
      +0       0       0       0       0       0       0       0       0       0       0       0       0       0       0       
      +0       0       0       0       0       0
  6578 ;;      Locals:         1       0       0       0       0       0       0       0       0       0       0       0       
      +0       0       0       0       0       0       0       0       0       0       0       0       0       0       0       
      +0       0       0       0       0       0
  6579 ;;      Temps:          2       0       0       0       0       0       0       0       0       0       0       0       
      +0       0       0       0       0       0       0       0       0       0       0       0       0       0       0       
      +0       0       0       0       0       0
  6580 ;;      Totals:         5       0       0       0       0       0       0       0       0       0       0       0       
      +0       0       0       0       0       0       0       0       0       0       0       0       0       0       0       
      +0       0       0       0       0       0
  6581 ;;Total ram usage:        5 bytes
  6582 ;; Hardware stack levels used: 1
  6583 ;; Hardware stack levels required when called: 3
  6584 ;; This function calls:
  6585 ;;		Nothing
  6586 ;; This function is called by:
  6587 ;;		_ADC
  6588 ;;		_VSR
  6589 ;;		_PWM
  6590 ;;		_EEPROM
  6591 ;; This function uses a non-reentrant model
  6592 ;;
  6593                           
  6594                           	psect	text63
  6595   00374A                     __ptext63:
  6596                           	callstack 0
  6597   00374A                     _ADCC_GetSingleConversion:
  6598                           	callstack 122
  6599                           
  6600                           ;incstack = 0
  6601                           ;ADCC_GetSingleConversion@channel stored from wreg
  6602   00374A  6E07               	movwf	ADCC_GetSingleConversion@channel^(0+1280),c
  6603   00374C                     
  6604                           ;mcc_generated_files/adc/src/adcc.c: 121: adc_result_t ADCC_GetSingleConversion(adcc_cha
      +                          nnel_t channel);mcc_generated_files/adc/src/adcc.c: 122: {;mcc_generated_files/adc/src/a
      +                          dcc.c: 124:     ADPCH = channel;
  6605   00374C  C507  F3EC         	movff	ADCC_GetSingleConversion@channel,1004	;volatile
  6606   003750                     
  6607                           ;mcc_generated_files/adc/src/adcc.c: 127:     ADCON0bits.ADCONT = 0;
  6608   003750  0103               	movlb	3	; () banked
  6609   003752  9DF3               	bcf	243,6,b	;volatile
  6610   003754                     
  6611                           ; BSR set to: 3
  6612                           ;mcc_generated_files/adc/src/adcc.c: 130:     ADCON0bits.ADGO = 1;
  6613   003754  81F3               	bsf	243,0,b	;volatile
  6614   003756                     l414:
  6615                           
  6616                           ; BSR set to: 3
  6617                           ;mcc_generated_files/adc/src/adcc.c: 134:     while (ADCON0bits.ADGO)
  6618   003756  B1F3               	btfsc	243,0,b	;volatile
  6619   003758  EFB0  F01B         	goto	u1721
  6620   00375C  EFB2  F01B         	goto	u1720
  6621   003760                     u1721:
  6622   003760  EFAB  F01B         	goto	l414
  6623   003764                     u1720:
  6624   003764                     
  6625                           ; BSR set to: 3
  6626                           ;mcc_generated_files/adc/src/adcc.c: 140:     return ((adc_result_t)((ADRESH << 8) + ADR
      +                          ESL));
  6627   003764  51EB               	movf	235,w,b	;volatile
  6628   003766  6E06               	movwf	(??_ADCC_GetSingleConversion+1)^(0+1280),c
  6629   003768  6A05               	clrf	??_ADCC_GetSingleConversion^(0+1280),c
  6630   00376A  51EA               	movf	234,w,b	;volatile
  6631   00376C  2405               	addwf	??_ADCC_GetSingleConversion^(0+1280),w,c
  6632   00376E  6E03               	movwf	?_ADCC_GetSingleConversion^(0+1280),c
  6633   003770  0E00               	movlw	0
  6634   003772  2006               	addwfc	(??_ADCC_GetSingleConversion+1)^(0+1280),w,c
  6635   003774  6E04               	movwf	(?_ADCC_GetSingleConversion+1)^(0+1280),c
  6636   003776                     
  6637                           ; BSR set to: 3
  6638   003776  0012               	return		;funcret
  6639   003778                     __end_of_ADCC_GetSingleConversion:
  6640                           	callstack 0
  6641                           
  6642 ;; *************** function _INTERRUPT_InterruptManager *****************
  6643 ;; Defined at:
  6644 ;;		line 80 in file "mcc_generated_files/system/src/interrupt.c"
  6645 ;; Parameters:    Size  Location     Type
  6646 ;;		None
  6647 ;; Auto vars:     Size  Location     Type
  6648 ;;		None
  6649 ;; Return value:  Size  Location     Type
  6650 ;;                  1    wreg      void 
  6651 ;; Registers used:
  6652 ;;		wreg, status,2, status,0, pcl, pclath, pclatu, tosl, cstack
  6653 ;; Tracked objects:
  6654 ;;		On entry : 0/0
  6655 ;;		On exit  : 0/0
  6656 ;;		Unchanged: 0/0
  6657 ;; Data sizes:     COMRAM   BANK5   BANK6   BANK7   BANK8   BANK9  BANK10  BANK11  BANK12  BANK13  BANK14  BANK15  BANK1
      +6  BANK17  BANK18  BANK19  BANK20  BANK21  BANK22  BANK23  BANK24  BANK25  BANK26  BANK27  BANK28  BANK29  BANK30  BANK3
      +1  BANK32  BANK33  BANK34  BANK35  BANK36
  6658 ;;      Params:         0       0       0       0       0       0       0       0       0       0       0       0       
      +0       0       0       0       0       0       0       0       0       0       0       0       0       0       0       
      +0       0       0       0       0       0
  6659 ;;      Locals:         0       0       0       0       0       0       0       0       0       0       0       0       
      +0       0       0       0       0       0       0       0       0       0       0       0       0       0       0       
      +0       0       0       0       0       0
  6660 ;;      Temps:          2       0       0       0       0       0       0       0       0       0       0       0       
      +0       0       0       0       0       0       0       0       0       0       0       0       0       0       0       
      +0       0       0       0       0       0
  6661 ;;      Totals:         2       0       0       0       0       0       0       0       0       0       0       0       
      +0       0       0       0       0       0       0       0       0       0       0       0       0       0       0       
      +0       0       0       0       0       0
  6662 ;;Total ram usage:        2 bytes
  6663 ;; Hardware stack levels used: 1
  6664 ;; Hardware stack levels required when called: 2
  6665 ;; This function calls:
  6666 ;;		_PIN_MANAGER_IOC
  6667 ;;		_TMR0_OverflowISR
  6668 ;; This function is called by:
  6669 ;;		Interrupt level 2
  6670 ;; This function uses a non-reentrant model
  6671 ;;
  6672                           
  6673                           	psect	text64
  6674   0033BE                     __ptext64:
  6675                           	callstack 0
  6676   0033BE                     _INTERRUPT_InterruptManager:
  6677                           	callstack 115
  6678                           
  6679                           ; BSR set to: 3
  6680                           ;incstack = 0
  6681   0033BE  C4FA F501          	movff	pclath,??_INTERRUPT_InterruptManager
  6682   0033C2  C4FB F502          	movff	pclatu,??_INTERRUPT_InterruptManager+1
  6683   0033C6                     
  6684                           ;mcc_generated_files/system/src/interrupt.c: 83:     if(PIE0bits.IOCIE == 1 && PIR0bits.
      +                          IOCIF == 1)
  6685   0033C6  AE9E               	btfss	158,7,c	;volatile
  6686   0033C8  EFE8  F019         	goto	i2u219_41
  6687   0033CC  EFEA  F019         	goto	i2u219_40
  6688   0033D0                     i2u219_41:
  6689   0033D0  EFF5  F019         	goto	i2l896
  6690   0033D4                     i2u219_40:
  6691   0033D4  AEAE               	btfss	174,7,c	;volatile
  6692   0033D6  EFEF  F019         	goto	i2u220_41
  6693   0033DA  EFF1  F019         	goto	i2u220_40
  6694   0033DE                     i2u220_41:
  6695   0033DE  EFF5  F019         	goto	i2l896
  6696   0033E2                     i2u220_40:
  6697   0033E2                     
  6698                           ;mcc_generated_files/system/src/interrupt.c: 84:     {;mcc_generated_files/system/src/in
      +                          terrupt.c: 85:         PIN_MANAGER_IOC();
  6699   0033E2  ECFE  F01C         	call	_PIN_MANAGER_IOC	;wreg free
  6700                           
  6701                           ;mcc_generated_files/system/src/interrupt.c: 86:     }
  6702   0033E6  EF05  F01A         	goto	i2l900
  6703   0033EA                     i2l896:
  6704   0033EA  AEA1               	btfss	161,7,c	;volatile
  6705   0033EC  EFFA  F019         	goto	i2u221_41
  6706   0033F0  EFFC  F019         	goto	i2u221_40
  6707   0033F4                     i2u221_41:
  6708   0033F4  EF05  F01A         	goto	i2l900
  6709   0033F8                     i2u221_40:
  6710   0033F8  AEB1               	btfss	177,7,c	;volatile
  6711   0033FA  EF01  F01A         	goto	i2u222_41
  6712   0033FE  EF03  F01A         	goto	i2u222_40
  6713   003402                     i2u222_41:
  6714   003402  EF05  F01A         	goto	i2l900
  6715   003406                     i2u222_40:
  6716   003406                     
  6717                           ;mcc_generated_files/system/src/interrupt.c: 88:     {;mcc_generated_files/system/src/in
      +                          terrupt.c: 89:         TMR0_OverflowISR();
  6718   003406  EC46  F01B         	call	_TMR0_OverflowISR	;wreg free
  6719   00340A                     i2l900:
  6720   00340A  C502  F4FB         	movff	??_INTERRUPT_InterruptManager+1,pclatu
  6721   00340E  C501  F4FA         	movff	??_INTERRUPT_InterruptManager,pclath
  6722   003412  0011               	retfie		f
  6723   003414                     __end_of_INTERRUPT_InterruptManager:
  6724                           	callstack 0
  6725                           
  6726 ;; *************** function _TMR0_OverflowISR *****************
  6727 ;; Defined at:
  6728 ;;		line 106 in file "mcc_generated_files/timer/src/tmr0.c"
  6729 ;; Parameters:    Size  Location     Type
  6730 ;;		None
  6731 ;; Auto vars:     Size  Location     Type
  6732 ;;		None
  6733 ;; Return value:  Size  Location     Type
  6734 ;;                  1    wreg      void 
  6735 ;; Registers used:
  6736 ;;		wreg, status,2, status,0, pcl, pclath, pclatu, tosl, cstack
  6737 ;; Tracked objects:
  6738 ;;		On entry : 0/0
  6739 ;;		On exit  : 0/0
  6740 ;;		Unchanged: 0/0
  6741 ;; Data sizes:     COMRAM   BANK5   BANK6   BANK7   BANK8   BANK9  BANK10  BANK11  BANK12  BANK13  BANK14  BANK15  BANK1
      +6  BANK17  BANK18  BANK19  BANK20  BANK21  BANK22  BANK23  BANK24  BANK25  BANK26  BANK27  BANK28  BANK29  BANK30  BANK3
      +1  BANK32  BANK33  BANK34  BANK35  BANK36
  6742 ;;      Params:         0       0       0       0       0       0       0       0       0       0       0       0       
      +0       0       0       0       0       0       0       0       0       0       0       0       0       0       0       
      +0       0       0       0       0       0
  6743 ;;      Locals:         0       0       0       0       0       0       0       0       0       0       0       0       
      +0       0       0       0       0       0       0       0       0       0       0       0       0       0       0       
      +0       0       0       0       0       0
  6744 ;;      Temps:          0       0       0       0       0       0       0       0       0       0       0       0       
      +0       0       0       0       0       0       0       0       0       0       0       0       0       0       0       
      +0       0       0       0       0       0
  6745 ;;      Totals:         0       0       0       0       0       0       0       0       0       0       0       0       
      +0       0       0       0       0       0       0       0       0       0       0       0       0       0       0       
      +0       0       0       0       0       0
  6746 ;;Total ram usage:        0 bytes
  6747 ;; Hardware stack levels used: 1
  6748 ;; Hardware stack levels required when called: 1
  6749 ;; This function calls:
  6750 ;;		NULL
  6751 ;;		_LAB_ISR
  6752 ;;		_TMR0_DefaultOverflowCallback
  6753 ;;		_TMR1_DefaultOverflowCallback
  6754 ;;		_TMR2_DefaultOverflowCallback
  6755 ;; This function is called by:
  6756 ;;		_INTERRUPT_InterruptManager
  6757 ;; This function uses a non-reentrant model
  6758 ;;
  6759                           
  6760                           	psect	text65
  6761   00368C                     __ptext65:
  6762                           	callstack 0
  6763   00368C                     _TMR0_OverflowISR:
  6764                           	callstack 115
  6765   00368C                     
  6766                           ;mcc_generated_files/timer/src/tmr0.c: 109:     PIR3bits.TMR0IF = 0;
  6767   00368C  9EB1               	bcf	177,7,c	;volatile
  6768   00368E                     
  6769                           ;mcc_generated_files/timer/src/tmr0.c: 110:     if(TMR0_OverflowCallback)
  6770   00368E  0105               	movlb	5	; () banked
  6771   003690  51A4               	movf	_TMR0_OverflowCallback& (0+255),w,b
  6772   003692  11A5               	iorwf	(_TMR0_OverflowCallback+1)& (0+255),w,b
  6773   003694  11A6               	iorwf	(_TMR0_OverflowCallback+2)& (0+255),w,b
  6774   003696  B4D8               	btfsc	status,2,c
  6775   003698  EF50  F01B         	goto	i2u207_41
  6776   00369C  EF52  F01B         	goto	i2u207_40
  6777   0036A0                     i2u207_41:
  6778   0036A0  EF5F  F01B         	goto	i2l1016
  6779   0036A4                     i2u207_40:
  6780   0036A4                     
  6781                           ; BSR set to: 5
  6782                           ;mcc_generated_files/timer/src/tmr0.c: 111:     {;mcc_generated_files/timer/src/tmr0.c: 
      +                          112:         TMR0_OverflowCallback();
  6783   0036A4  D802               	call	i2u208_48
  6784   0036A6  EF5F  F01B         	goto	i2u208_49
  6785   0036AA                     i2u208_48:
  6786   0036AA  0005               	push	
  6787   0036AC  6EFA               	movwf	pclath,c
  6788   0036AE  51A4               	movf	_TMR0_OverflowCallback& (0+255),w,b
  6789   0036B0  6EFD               	movwf	tosl,c
  6790   0036B2  51A5               	movf	(_TMR0_OverflowCallback+1)& (0+255),w,b
  6791   0036B4  6EFE               	movwf	tosh,c
  6792   0036B6  51A6               	movf	(_TMR0_OverflowCallback+2)& (0+255),w,b
  6793   0036B8  6EFF               	movwf	tosu,c
  6794   0036BA  50FA               	movf	pclath,w,c
  6795   0036BC  0012               	return		;indir
  6796   0036BE                     i2u208_49:
  6797   0036BE                     i2l1016:
  6798   0036BE  0012               	return		;funcret
  6799   0036C0                     __end_of_TMR0_OverflowISR:
  6800                           	callstack 0
  6801                           
  6802 ;; *************** function _TMR1_DefaultOverflowCallback *****************
  6803 ;; Defined at:
  6804 ;;		line 163 in file "mcc_generated_files/timer/src/tmr1.c"
  6805 ;; Parameters:    Size  Location     Type
  6806 ;;		None
  6807 ;; Auto vars:     Size  Location     Type
  6808 ;;		None
  6809 ;; Return value:  Size  Location     Type
  6810 ;;                  1    wreg      void 
  6811 ;; Registers used:
  6812 ;;		None
  6813 ;; Tracked objects:
  6814 ;;		On entry : 0/0
  6815 ;;		On exit  : 0/0
  6816 ;;		Unchanged: 0/0
  6817 ;; Data sizes:     COMRAM   BANK5   BANK6   BANK7   BANK8   BANK9  BANK10  BANK11  BANK12  BANK13  BANK14  BANK15  BANK1
      +6  BANK17  BANK18  BANK19  BANK20  BANK21  BANK22  BANK23  BANK24  BANK25  BANK26  BANK27  BANK28  BANK29  BANK30  BANK3
      +1  BANK32  BANK33  BANK34  BANK35  BANK36
  6818 ;;      Params:         0       0       0       0       0       0       0       0       0       0       0       0       
      +0       0       0       0       0       0       0       0       0       0       0       0       0       0       0       
      +0       0       0       0       0       0
  6819 ;;      Locals:         0       0       0       0       0       0       0       0       0       0       0       0       
      +0       0       0       0       0       0       0       0       0       0       0       0       0       0       0       
      +0       0       0       0       0       0
  6820 ;;      Temps:          0       0       0       0       0       0       0       0       0       0       0       0       
      +0       0       0       0       0       0       0       0       0       0       0       0       0       0       0       
      +0       0       0       0       0       0
  6821 ;;      Totals:         0       0       0       0       0       0       0       0       0       0       0       0       
      +0       0       0       0       0       0       0       0       0       0       0       0       0       0       0       
      +0       0       0       0       0       0
  6822 ;;Total ram usage:        0 bytes
  6823 ;; Hardware stack levels used: 1
  6824 ;; This function calls:
  6825 ;;		Nothing
  6826 ;; This function is called by:
  6827 ;;		_TMR1_Initialize
  6828 ;;		_TMR0_OverflowISR
  6829 ;;		_TMR1_Tasks
  6830 ;;		_TMR2_Tasks
  6831 ;; This function uses a non-reentrant model
  6832 ;;
  6833                           
  6834                           	psect	text66
  6835   0039F6                     __ptext66:
  6836                           	callstack 0
  6837   0039F6                     _TMR1_DefaultOverflowCallback:
  6838                           	callstack 115
  6839   0039F6  0012               	return		;funcret
  6840   0039F8                     __end_of_TMR1_DefaultOverflowCallback:
  6841                           	callstack 0
  6842                           
  6843 ;; *************** function _TMR0_DefaultOverflowCallback *****************
  6844 ;; Defined at:
  6845 ;;		line 121 in file "mcc_generated_files/timer/src/tmr0.c"
  6846 ;; Parameters:    Size  Location     Type
  6847 ;;		None
  6848 ;; Auto vars:     Size  Location     Type
  6849 ;;		None
  6850 ;; Return value:  Size  Location     Type
  6851 ;;                  1    wreg      void 
  6852 ;; Registers used:
  6853 ;;		None
  6854 ;; Tracked objects:
  6855 ;;		On entry : 0/0
  6856 ;;		On exit  : 0/0
  6857 ;;		Unchanged: 0/0
  6858 ;; Data sizes:     COMRAM   BANK5   BANK6   BANK7   BANK8   BANK9  BANK10  BANK11  BANK12  BANK13  BANK14  BANK15  BANK1
      +6  BANK17  BANK18  BANK19  BANK20  BANK21  BANK22  BANK23  BANK24  BANK25  BANK26  BANK27  BANK28  BANK29  BANK30  BANK3
      +1  BANK32  BANK33  BANK34  BANK35  BANK36
  6859 ;;      Params:         0       0       0       0       0       0       0       0       0       0       0       0       
      +0       0       0       0       0       0       0       0       0       0       0       0       0       0       0       
      +0       0       0       0       0       0
  6860 ;;      Locals:         0       0       0       0       0       0       0       0       0       0       0       0       
      +0       0       0       0       0       0       0       0       0       0       0       0       0       0       0       
      +0       0       0       0       0       0
  6861 ;;      Temps:          0       0       0       0       0       0       0       0       0       0       0       0       
      +0       0       0       0       0       0       0       0       0       0       0       0       0       0       0       
      +0       0       0       0       0       0
  6862 ;;      Totals:         0       0       0       0       0       0       0       0       0       0       0       0       
      +0       0       0       0       0       0       0       0       0       0       0       0       0       0       0       
      +0       0       0       0       0       0
  6863 ;;Total ram usage:        0 bytes
  6864 ;; Hardware stack levels used: 1
  6865 ;; This function calls:
  6866 ;;		Nothing
  6867 ;; This function is called by:
  6868 ;;		_TMR0_Initialize
  6869 ;;		_TMR0_OverflowISR
  6870 ;;		_TMR1_Tasks
  6871 ;;		_TMR2_Tasks
  6872 ;; This function uses a non-reentrant model
  6873 ;;
  6874                           
  6875                           	psect	text67
  6876   0039F8                     __ptext67:
  6877                           	callstack 0
  6878   0039F8                     _TMR0_DefaultOverflowCallback:
  6879                           	callstack 115
  6880   0039F8  0012               	return		;funcret
  6881   0039FA                     __end_of_TMR0_DefaultOverflowCallback:
  6882                           	callstack 0
  6883                           
  6884 ;; *************** function _LAB_ISR *****************
  6885 ;; Defined at:
  6886 ;;		line 88 in file "Labs/Lab08_Interrupts/Interrupts.c"
  6887 ;; Parameters:    Size  Location     Type
  6888 ;;		None
  6889 ;; Auto vars:     Size  Location     Type
  6890 ;;		None
  6891 ;; Return value:  Size  Location     Type
  6892 ;;                  1    wreg      void 
  6893 ;; Registers used:
  6894 ;;		wreg, status,2, status,0
  6895 ;; Tracked objects:
  6896 ;;		On entry : 0/0
  6897 ;;		On exit  : 0/0
  6898 ;;		Unchanged: 0/0
  6899 ;; Data sizes:     COMRAM   BANK5   BANK6   BANK7   BANK8   BANK9  BANK10  BANK11  BANK12  BANK13  BANK14  BANK15  BANK1
      +6  BANK17  BANK18  BANK19  BANK20  BANK21  BANK22  BANK23  BANK24  BANK25  BANK26  BANK27  BANK28  BANK29  BANK30  BANK3
      +1  BANK32  BANK33  BANK34  BANK35  BANK36
  6900 ;;      Params:         0       0       0       0       0       0       0       0       0       0       0       0       
      +0       0       0       0       0       0       0       0       0       0       0       0       0       0       0       
      +0       0       0       0       0       0
  6901 ;;      Locals:         0       0       0       0       0       0       0       0       0       0       0       0       
      +0       0       0       0       0       0       0       0       0       0       0       0       0       0       0       
      +0       0       0       0       0       0
  6902 ;;      Temps:          0       0       0       0       0       0       0       0       0       0       0       0       
      +0       0       0       0       0       0       0       0       0       0       0       0       0       0       0       
      +0       0       0       0       0       0
  6903 ;;      Totals:         0       0       0       0       0       0       0       0       0       0       0       0       
      +0       0       0       0       0       0       0       0       0       0       0       0       0       0       0       
      +0       0       0       0       0       0
  6904 ;;Total ram usage:        0 bytes
  6905 ;; Hardware stack levels used: 1
  6906 ;; This function calls:
  6907 ;;		Nothing
  6908 ;; This function is called by:
  6909 ;;		_Interrupts
  6910 ;;		_TMR0_OverflowISR
  6911 ;;		_TMR1_Tasks
  6912 ;;		_TMR2_Tasks
  6913 ;; This function uses a non-reentrant model
  6914 ;;
  6915                           
  6916                           	psect	text68
  6917   003884                     __ptext68:
  6918                           	callstack 0
  6919   003884                     _LAB_ISR:
  6920                           	callstack 115
  6921   003884                     
  6922                           ;Labs/Lab08_Interrupts/Interrupts.c: 90:     if (rotateReg == 1) {
  6923   003884  0455               	decf	_rotateReg@Interrupts$F299^(0+1280),w,c
  6924   003886  A4D8               	btfss	status,2,c
  6925   003888  EF48  F01C         	goto	i2u173_41
  6926   00388C  EF4A  F01C         	goto	i2u173_40
  6927   003890                     i2u173_41:
  6928   003890  EF4C  F01C         	goto	i2l3701
  6929   003894                     i2u173_40:
  6930   003894                     
  6931                           ;Labs/Lab08_Interrupts/Interrupts.c: 91:         rotateReg = 16;
  6932   003894  0E10               	movlw	16
  6933   003896  6E55               	movwf	_rotateReg@Interrupts$F299^(0+1280),c
  6934   003898                     i2l3701:
  6935                           
  6936                           ;Labs/Lab08_Interrupts/Interrupts.c: 94:     rotateReg >>= 1;
  6937   003898  90D8               	bcf	status,0,c
  6938   00389A  3255               	rrcf	_rotateReg@Interrupts$F299^(0+1280),f,c
  6939   00389C                     
  6940                           ;Labs/Lab08_Interrupts/Interrupts.c: 97:     LATA = (rotateReg << 4);
  6941   00389C  3855               	swapf	_rotateReg@Interrupts$F299^(0+1280),w,c
  6942   00389E  0BF0               	andlw	240
  6943   0038A0  6EBE               	movwf	190,c	;volatile
  6944   0038A2  0012               	return		;funcret
  6945   0038A4                     __end_of_LAB_ISR:
  6946                           	callstack 0
  6947                           
  6948 ;; *************** function _TMR2_DefaultOverflowCallback *****************
  6949 ;; Defined at:
  6950 ;;		line 126 in file "mcc_generated_files/timer/src/tmr2.c"
  6951 ;; Parameters:    Size  Location     Type
  6952 ;;		None
  6953 ;; Auto vars:     Size  Location     Type
  6954 ;;		None
  6955 ;; Return value:  Size  Location     Type
  6956 ;;                  1    wreg      void 
  6957 ;; Registers used:
  6958 ;;		None
  6959 ;; Tracked objects:
  6960 ;;		On entry : 0/0
  6961 ;;		On exit  : 0/0
  6962 ;;		Unchanged: 0/0
  6963 ;; Data sizes:     COMRAM   BANK5   BANK6   BANK7   BANK8   BANK9  BANK10  BANK11  BANK12  BANK13  BANK14  BANK15  BANK1
      +6  BANK17  BANK18  BANK19  BANK20  BANK21  BANK22  BANK23  BANK24  BANK25  BANK26  BANK27  BANK28  BANK29  BANK30  BANK3
      +1  BANK32  BANK33  BANK34  BANK35  BANK36
  6964 ;;      Params:         0       0       0       0       0       0       0       0       0       0       0       0       
      +0       0       0       0       0       0       0       0       0       0       0       0       0       0       0       
      +0       0       0       0       0       0
  6965 ;;      Locals:         0       0       0       0       0       0       0       0       0       0       0       0       
      +0       0       0       0       0       0       0       0       0       0       0       0       0       0       0       
      +0       0       0       0       0       0
  6966 ;;      Temps:          0       0       0       0       0       0       0       0       0       0       0       0       
      +0       0       0       0       0       0       0       0       0       0       0       0       0       0       0       
      +0       0       0       0       0       0
  6967 ;;      Totals:         0       0       0       0       0       0       0       0       0       0       0       0       
      +0       0       0       0       0       0       0       0       0       0       0       0       0       0       0       
      +0       0       0       0       0       0
  6968 ;;Total ram usage:        0 bytes
  6969 ;; Hardware stack levels used: 1
  6970 ;; This function calls:
  6971 ;;		Nothing
  6972 ;; This function is called by:
  6973 ;;		_TMR2_Initialize
  6974 ;;		_TMR0_OverflowISR
  6975 ;;		_TMR1_Tasks
  6976 ;;		_TMR2_Tasks
  6977 ;; This function uses a non-reentrant model
  6978 ;;
  6979                           
  6980                           	psect	text69
  6981   0039FA                     __ptext69:
  6982                           	callstack 0
  6983   0039FA                     _TMR2_DefaultOverflowCallback:
  6984                           	callstack 115
  6985   0039FA  0012               	return		;funcret
  6986   0039FC                     __end_of_TMR2_DefaultOverflowCallback:
  6987                           	callstack 0
  6988                           
  6989 ;; *************** function _PIN_MANAGER_IOC *****************
  6990 ;; Defined at:
  6991 ;;		line 135 in file "mcc_generated_files/system/src/pins.c"
  6992 ;; Parameters:    Size  Location     Type
  6993 ;;		None
  6994 ;; Auto vars:     Size  Location     Type
  6995 ;;		None
  6996 ;; Return value:  Size  Location     Type
  6997 ;;                  1    wreg      void 
  6998 ;; Registers used:
  6999 ;;		None
  7000 ;; Tracked objects:
  7001 ;;		On entry : 0/0
  7002 ;;		On exit  : 0/0
  7003 ;;		Unchanged: 0/0
  7004 ;; Data sizes:     COMRAM   BANK5   BANK6   BANK7   BANK8   BANK9  BANK10  BANK11  BANK12  BANK13  BANK14  BANK15  BANK1
      +6  BANK17  BANK18  BANK19  BANK20  BANK21  BANK22  BANK23  BANK24  BANK25  BANK26  BANK27  BANK28  BANK29  BANK30  BANK3
      +1  BANK32  BANK33  BANK34  BANK35  BANK36
  7005 ;;      Params:         0       0       0       0       0       0       0       0       0       0       0       0       
      +0       0       0       0       0       0       0       0       0       0       0       0       0       0       0       
      +0       0       0       0       0       0
  7006 ;;      Locals:         0       0       0       0       0       0       0       0       0       0       0       0       
      +0       0       0       0       0       0       0       0       0       0       0       0       0       0       0       
      +0       0       0       0       0       0
  7007 ;;      Temps:          0       0       0       0       0       0       0       0       0       0       0       0       
      +0       0       0       0       0       0       0       0       0       0       0       0       0       0       0       
      +0       0       0       0       0       0
  7008 ;;      Totals:         0       0       0       0       0       0       0       0       0       0       0       0       
      +0       0       0       0       0       0       0       0       0       0       0       0       0       0       0       
      +0       0       0       0       0       0
  7009 ;;Total ram usage:        0 bytes
  7010 ;; Hardware stack levels used: 1
  7011 ;; This function calls:
  7012 ;;		Nothing
  7013 ;; This function is called by:
  7014 ;;		_INTERRUPT_InterruptManager
  7015 ;; This function uses a non-reentrant model
  7016 ;;
  7017                           
  7018                           	psect	text70
  7019   0039FC                     __ptext70:
  7020                           	callstack 0
  7021   0039FC                     _PIN_MANAGER_IOC:
  7022                           	callstack 116
  7023   0039FC  0012               	return		;funcret
  7024   0039FE                     __end_of_PIN_MANAGER_IOC:
  7025                           	callstack 0
  7026                           
  7027                           ;
  7028                           ; Interrupt Vector Table @ 0x8
  7029                           ;
  7030                           
  7031                           	psect	ivt0x8
  7032   000008                     __pivt0x8:
  7033                           	callstack 0
  7034   000008                     ivt0x8_base:
  7035                           	callstack 0
  7036                           
  7037                           ; high-priority vector
  7038   000008  EFDF  F019         	goto	_INTERRUPT_InterruptManager
  7039   000018                     	org	16
  7040                           
  7041                           ; low-priority vector
  7042   000018  00FF               	reset	
  7043                           
  7044                           	psect	text71
  7045   000000                     __ptext71:
  7046                           	callstack 0
  7047   000000                     
  7048                           	psect	rparam
  7049   000000                     
  7050                           	psect	idloc
  7051                           
  7052                           ;Config register IDLOC0 @ 0x200000
  7053                           ;	unspecified, using default values
  7054   200000                     	org	2097152
  7055   200000  FFFF               	dw	65535
  7056                           
  7057                           ;Config register IDLOC1 @ 0x200002
  7058                           ;	unspecified, using default values
  7059   200002                     	org	2097154
  7060   200002  FFFF               	dw	65535
  7061                           
  7062                           ;Config register IDLOC2 @ 0x200004
  7063                           ;	unspecified, using default values
  7064   200004                     	org	2097156
  7065   200004  FFFF               	dw	65535
  7066                           
  7067                           ;Config register IDLOC3 @ 0x200006
  7068                           ;	unspecified, using default values
  7069   200006                     	org	2097158
  7070   200006  FFFF               	dw	65535
  7071                           
  7072                           ;Config register IDLOC4 @ 0x200008
  7073                           ;	unspecified, using default values
  7074   200008                     	org	2097160
  7075   200008  FFFF               	dw	65535
  7076                           
  7077                           ;Config register IDLOC5 @ 0x20000A
  7078                           ;	unspecified, using default values
  7079   20000A                     	org	2097162
  7080   20000A  FFFF               	dw	65535
  7081                           
  7082                           ;Config register IDLOC6 @ 0x20000C
  7083                           ;	unspecified, using default values
  7084   20000C                     	org	2097164
  7085   20000C  FFFF               	dw	65535
  7086                           
  7087                           ;Config register IDLOC7 @ 0x20000E
  7088                           ;	unspecified, using default values
  7089   20000E                     	org	2097166
  7090   20000E  FFFF               	dw	65535
  7091                           
  7092                           ;Config register IDLOC8 @ 0x200010
  7093                           ;	unspecified, using default values
  7094   200010                     	org	2097168
  7095   200010  FFFF               	dw	65535
  7096                           
  7097                           ;Config register IDLOC9 @ 0x200012
  7098                           ;	unspecified, using default values
  7099   200012                     	org	2097170
  7100   200012  FFFF               	dw	65535
  7101                           
  7102                           ;Config register IDLOC10 @ 0x200014
  7103                           ;	unspecified, using default values
  7104   200014                     	org	2097172
  7105   200014  FFFF               	dw	65535
  7106                           
  7107                           ;Config register IDLOC11 @ 0x200016
  7108                           ;	unspecified, using default values
  7109   200016                     	org	2097174
  7110   200016  FFFF               	dw	65535
  7111                           
  7112                           ;Config register IDLOC12 @ 0x200018
  7113                           ;	unspecified, using default values
  7114   200018                     	org	2097176
  7115   200018  FFFF               	dw	65535
  7116                           
  7117                           ;Config register IDLOC13 @ 0x20001A
  7118                           ;	unspecified, using default values
  7119   20001A                     	org	2097178
  7120   20001A  FFFF               	dw	65535
  7121                           
  7122                           ;Config register IDLOC14 @ 0x20001C
  7123                           ;	unspecified, using default values
  7124   20001C                     	org	2097180
  7125   20001C  FFFF               	dw	65535
  7126                           
  7127                           ;Config register IDLOC15 @ 0x20001E
  7128                           ;	unspecified, using default values
  7129   20001E                     	org	2097182
  7130   20001E  FFFF               	dw	65535
  7131                           
  7132                           ;Config register IDLOC16 @ 0x200020
  7133                           ;	unspecified, using default values
  7134   200020                     	org	2097184
  7135   200020  FFFF               	dw	65535
  7136                           
  7137                           ;Config register IDLOC17 @ 0x200022
  7138                           ;	unspecified, using default values
  7139   200022                     	org	2097186
  7140   200022  FFFF               	dw	65535
  7141                           
  7142                           ;Config register IDLOC18 @ 0x200024
  7143                           ;	unspecified, using default values
  7144   200024                     	org	2097188
  7145   200024  FFFF               	dw	65535
  7146                           
  7147                           ;Config register IDLOC19 @ 0x200026
  7148                           ;	unspecified, using default values
  7149   200026                     	org	2097190
  7150   200026  FFFF               	dw	65535
  7151                           
  7152                           ;Config register IDLOC20 @ 0x200028
  7153                           ;	unspecified, using default values
  7154   200028                     	org	2097192
  7155   200028  FFFF               	dw	65535
  7156                           
  7157                           ;Config register IDLOC21 @ 0x20002A
  7158                           ;	unspecified, using default values
  7159   20002A                     	org	2097194
  7160   20002A  FFFF               	dw	65535
  7161                           
  7162                           ;Config register IDLOC22 @ 0x20002C
  7163                           ;	unspecified, using default values
  7164   20002C                     	org	2097196
  7165   20002C  FFFF               	dw	65535
  7166                           
  7167                           ;Config register IDLOC23 @ 0x20002E
  7168                           ;	unspecified, using default values
  7169   20002E                     	org	2097198
  7170   20002E  FFFF               	dw	65535
  7171                           
  7172                           ;Config register IDLOC24 @ 0x200030
  7173                           ;	unspecified, using default values
  7174   200030                     	org	2097200
  7175   200030  FFFF               	dw	65535
  7176                           
  7177                           ;Config register IDLOC25 @ 0x200032
  7178                           ;	unspecified, using default values
  7179   200032                     	org	2097202
  7180   200032  FFFF               	dw	65535
  7181                           
  7182                           ;Config register IDLOC26 @ 0x200034
  7183                           ;	unspecified, using default values
  7184   200034                     	org	2097204
  7185   200034  FFFF               	dw	65535
  7186                           
  7187                           ;Config register IDLOC27 @ 0x200036
  7188                           ;	unspecified, using default values
  7189   200036                     	org	2097206
  7190   200036  FFFF               	dw	65535
  7191                           
  7192                           ;Config register IDLOC28 @ 0x200038
  7193                           ;	unspecified, using default values
  7194   200038                     	org	2097208
  7195   200038  FFFF               	dw	65535
  7196                           
  7197                           ;Config register IDLOC29 @ 0x20003A
  7198                           ;	unspecified, using default values
  7199   20003A                     	org	2097210
  7200   20003A  FFFF               	dw	65535
  7201                           
  7202                           ;Config register IDLOC30 @ 0x20003C
  7203                           ;	unspecified, using default values
  7204   20003C                     	org	2097212
  7205   20003C  FFFF               	dw	65535
  7206                           
  7207                           ;Config register IDLOC31 @ 0x20003E
  7208                           ;	unspecified, using default values
  7209   20003E                     	org	2097214
  7210   20003E  FFFF               	dw	65535
  7211                           
  7212                           	psect	config
  7213                           
  7214                           ;Config register CONFIG1 @ 0x300000
  7215                           ;	External Oscillator Selection
  7216                           ;	FEXTOSC = OFF, Oscillator not enabled
  7217                           ;	Reset Oscillator Selection
  7218                           ;	RSTOSC = HFINTOSC_1MHZ, HFINTOSC with HFFRQ = 4 MHz and CDIV = 4:1
  7219   300000                     	org	3145728
  7220   300000  EC                 	db	236
  7221                           
  7222                           ;Config register CONFIG2 @ 0x300001
  7223                           ;	Clock out Enable bit
  7224                           ;	CLKOUTEN = OFF, CLKOUT function is disabled
  7225                           ;	PRLOCKED One-Way Set Enable bit
  7226                           ;	PR1WAY = ON, PRLOCKED bit can be cleared and set only once
  7227                           ;	Clock Switch Enable bit
  7228                           ;	CSWEN = ON, Writing to NOSC and NDIV is allowed
  7229                           ;	Fail-Safe Clock Monitor Enable bit
  7230                           ;	FCMEN = ON, Fail-Safe Clock Monitor enabled
  7231   300001                     	org	3145729
  7232   300001  FF                 	db	255
  7233                           
  7234                           ;Config register CONFIG3 @ 0x300002
  7235                           ;	MCLR Enable bit
  7236                           ;	MCLRE = EXTMCLR, If LVP = 0, MCLR pin is MCLR; If LVP = 1, RE3 pin function is MCLR
  7237                           ;	Power-up timer selection bits
  7238                           ;	PWRTS = PWRT_OFF, PWRT is disabled
  7239                           ;	Multi-vector enable bit
  7240                           ;	MVECEN = OFF, Interrupt contoller does not use vector table to prioritze interrupts
  7241                           ;	IVTLOCK bit One-way set enable bit
  7242                           ;	IVT1WAY = ON, IVTLOCKED bit can be cleared and set only once
  7243                           ;	Low Power BOR Enable bit
  7244                           ;	LPBOREN = OFF, Low-Power BOR disabled
  7245                           ;	Brown-out Reset Enable bits
  7246                           ;	BOREN = SBORDIS, Brown-out Reset enabled , SBOREN bit is ignored
  7247   300002                     	org	3145730
  7248   300002  F7                 	db	247
  7249                           
  7250                           ;Config register CONFIG4 @ 0x300003
  7251                           ;	Brown-out Reset Voltage Selection bits
  7252                           ;	BORV = VBOR_1P9, Brown-out Reset Voltage (VBOR) set to 1.9V
  7253                           ;	ZCD Disable bit
  7254                           ;	ZCD = OFF, ZCD module is disabled. ZCD can be enabled by setting the ZCDSEN bit of ZCD
      +                          CON
  7255                           ;	PPSLOCK bit One-Way Set Enable bit
  7256                           ;	PPS1WAY = OFF, PPSLOCKED bit can be set and cleared repeatedly (subject to the unlock 
      +                          sequence)
  7257                           ;	Stack Full/Underflow Reset Enable bit
  7258                           ;	STVREN = ON, Stack full/underflow will cause Reset
  7259                           ;	Low Voltage Programming Enable bit
  7260                           ;	LVP = ON, Low voltage programming enabled. MCLR/VPP pin function is MCLR. MCLRE config
      +                          uration bit is ignored
  7261                           ;	Extended Instruction Set Enable bit
  7262                           ;	XINST = OFF, Extended Instruction Set and Indexed Addressing Mode disabled
  7263   300003                     	org	3145731
  7264   300003  F7                 	db	247
  7265                           
  7266                           ;Config register CONFIG5 @ 0x300004
  7267                           ;	WDT Period selection bits
  7268                           ;	WDTCPS = WDTCPS_31, Divider ratio 1:65536; software control of WDTPS
  7269                           ;	WDT operating mode
  7270                           ;	WDTE = SWDTEN, WDT enabled/disabled by SWDTEN bit
  7271   300004                     	org	3145732
  7272   300004  BF                 	db	191
  7273                           
  7274                           ;Config register CONFIG6 @ 0x300005
  7275                           ;	WDT Window Select bits
  7276                           ;	WDTCWS = WDTCWS_7, window always open (100%); software control; keyed access not requi
      +                          red
  7277                           ;	WDT input clock selector
  7278                           ;	WDTCCS = SC, Software Control
  7279   300005                     	org	3145733
  7280   300005  FF                 	db	255
  7281                           
  7282                           ;Config register CONFIG7 @ 0x300006
  7283                           ;	Boot Block Size selection bits
  7284                           ;	BBSIZE = BBSIZE_512, Boot Block size is 512 words
  7285                           ;	Boot Block enable bit
  7286                           ;	BBEN = OFF, Boot block disabled
  7287                           ;	Storage Area Flash enable bit
  7288                           ;	SAFEN = OFF, SAF disabled
  7289                           ;	Background Debugger
  7290                           ;	DEBUG = OFF, Background Debugger disabled
  7291   300006                     	org	3145734
  7292   300006  FF                 	db	255
  7293                           
  7294                           ;Config register CONFIG8 @ 0x300007
  7295                           ;	Boot Block Write Protection bit
  7296                           ;	WRTB = OFF, Boot Block not Write protected
  7297                           ;	Configuration Register Write Protection bit
  7298                           ;	WRTC = OFF, Configuration registers not Write protected
  7299                           ;	Data EEPROM Write Protection bit
  7300                           ;	WRTD = OFF, Data EEPROM not Write protected
  7301                           ;	SAF Write protection bit
  7302                           ;	WRTSAF = OFF, SAF not Write Protected
  7303                           ;	Application Block write protection bit
  7304                           ;	WRTAPP = OFF, Application Block not write protected
  7305   300007                     	org	3145735
  7306   300007  FF                 	db	255
  7307                           
  7308                           ;Config register CONFIG10 @ 0x300009
  7309                           ;	PFM and Data EEPROM Code Protection bit
  7310                           ;	CP = OFF, PFM and Data EEPROM code protection disabled
  7311   300009                     	org	3145737
  7312   300009  FF                 	db	255
  7313                           tosu	equ	0x4FF
  7314                           tosh	equ	0x4FE
  7315                           tosl	equ	0x4FD
  7316                           stkptr	equ	0x4FC
  7317                           pclatu	equ	0x4FB
  7318                           pclath	equ	0x4FA
  7319                           pcl	equ	0x4F9
  7320                           tblptru	equ	0x4F8
  7321                           tblptrh	equ	0x4F7
  7322                           tblptrl	equ	0x4F6
  7323                           tablat	equ	0x4F5
  7324                           prodh	equ	0x4F4
  7325                           prodl	equ	0x4F3
  7326                           indf0	equ	0x4EF
  7327                           postinc0	equ	0x4EE
  7328                           postdec0	equ	0x4ED
  7329                           preinc0	equ	0x4EC
  7330                           plusw0	equ	0x4EB
  7331                           fsr0h	equ	0x4EA
  7332                           fsr0l	equ	0x4E9
  7333                           wreg	equ	0x4E8
  7334                           indf1	equ	0x4E7
  7335                           postinc1	equ	0x4E6
  7336                           postdec1	equ	0x4E5
  7337                           preinc1	equ	0x4E4
  7338                           plusw1	equ	0x4E3
  7339                           fsr1h	equ	0x4E2
  7340                           fsr1l	equ	0x4E1
  7341                           bsr	equ	0x4E0
  7342                           indf2	equ	0x4DF
  7343                           postinc2	equ	0x4DE
  7344                           postdec2	equ	0x4DD
  7345                           preinc2	equ	0x4DC
  7346                           plusw2	equ	0x4DB
  7347                           fsr2h	equ	0x4DA
  7348                           fsr2l	equ	0x4D9
  7349                           status	equ	0x4D8

Data Sizes:
    Strings     17
    Constant    126
    Data        0
    BSS         79
    Persistent  21
    Stack       0

Auto Spaces:
    Space          Size  Autos    Used
    COMRAM           95     75      95
    BANK5           160      0      80
    BANK6           256      0       0
    BANK7           256      0       0
    BANK8           256      0       0
    BANK9           256      0       0
    BANK10          256      0       0
    BANK11          256      0       0
    BANK12          256      0       0
    BANK13          256      0       0
    BANK14          256      0       0
    BANK15          256      0       0
    BANK16          256      0       0
    BANK17          256      0       0
    BANK18          256      0       0
    BANK19          256      0       0
    BANK20          256      0       0
    BANK21          256      0       0
    BANK22          256      0       0
    BANK23          256      0       0
    BANK24          256      0       0
    BANK25          256      0       0
    BANK26          256      0       0
    BANK27          256      0       0
    BANK28          256      0       0
    BANK29          256      0       0
    BANK30          256      0       0
    BANK31          256      0       0
    BANK32          256      0       0
    BANK33          256      0       0
    BANK34          256      0       0
    BANK35          256      0       0
    BANK36          256      0       0

Pointer List with Targets:

    S1565$4$0	PTR FTN()void  size(3) Largest target is 1
		 -> TMR2_DefaultOverflowCallback(), TMR1_DefaultOverflowCallback(), TMR0_DefaultOverflowCallback(), LAB_ISR(), 

    S2276$20$0	PTR FTN()void  size(3) Largest target is 1
		 -> UART1_DefaultFramingErrorCallback(), 

    S2276$21$0	PTR FTN()void  size(3) Largest target is 1
		 -> UART1_DefaultOverrunErrorCallback(), 

    S2276$22$0	PTR FTN()void  size(3) Largest target is 1
		 -> UART1_DefaultParityErrorCallback(), 

    TMR1_InterruptHandler	PTR FTN()void  size(3) Largest target is 1
		 -> NULL(), 

    fputs@s	PTR const unsigned char  size(2) Largest target is 32
		 -> dbuf(BANK5[32]), 

    fputs@fp	PTR struct _IO_FILE size(2) Largest target is 0
		 -> NULL(NULL[0]), 

    S3322$source	PTR const unsigned char  size(2) Largest target is 0

    fputc@fp...source	PTR const unsigned char  size(2) Largest target is 0

    S3322$buffer	PTR unsigned char  size(2) Largest target is 0

    fputc@fp...buffer	PTR unsigned char  size(2) Largest target is 0

    fputc@fp	PTR struct _IO_FILE size(2) Largest target is 0
		 -> NULL(NULL[0]), 

    vfprintf@ap	PTR PTR void  size(2) Largest target is 2
		 -> printf@ap(COMRAM[2]), 

    vfprintf@fp	PTR struct _IO_FILE size(2) Largest target is 0
		 -> NULL(NULL[0]), 

    vfprintf@fmt	PTR const unsigned char  size(2) Largest target is 17
		 -> STR_3(CODE[17]), STR_2(CODE[17]), STR_1(CODE[17]), 

    vfprintf@cfmt	PTR unsigned char  size(2) Largest target is 17
		 -> STR_3(CODE[17]), STR_2(CODE[17]), STR_1(CODE[17]), 

    vfpfcnvrt@fp	PTR struct _IO_FILE size(2) Largest target is 0
		 -> NULL(NULL[0]), 

    vfpfcnvrt@ap	PTR PTR void  size(2) Largest target is 2
		 -> printf@ap(COMRAM[2]), 

    vfpfcnvrt@cp	PTR unsigned char  size(2) Largest target is 17
		 -> STR_3(CODE[17]), STR_2(CODE[17]), STR_1(CODE[17]), 

    vfpfcnvrt@fmt	PTR PTR unsigned char  size(2) Largest target is 2
		 -> vfprintf@cfmt(COMRAM[2]), 

    S3361$vp	PTR void  size(2) Largest target is 0

    convarg.vp	PTR void  size(2) Largest target is 0

    dtoa@fp	PTR struct _IO_FILE size(2) Largest target is 0
		 -> NULL(NULL[0]), 

    pad@buf	PTR unsigned char  size(2) Largest target is 32
		 -> dbuf(BANK5[32]), 

    pad@fp	PTR struct _IO_FILE size(2) Largest target is 0
		 -> NULL(NULL[0]), 

    printf@fmt	PTR const unsigned char  size(2) Largest target is 17
		 -> STR_3(CODE[17]), STR_2(CODE[17]), STR_1(CODE[17]), 

    printf@ap	PTR void [1] size(2) Largest target is 2
		 -> ?_printf(COMRAM[2]), 

    UART1_ParityErrorHandler	PTR FTN()void  size(3) Largest target is 1
		 -> UART1_DefaultParityErrorCallback(), NULL(), 

    UART1_ParityErrorCallbackRegister@callbackHandler	PTR FTN()void  size(3) Largest target is 1
		 -> UART1_DefaultParityErrorCallback(), 

    UART1_OverrunErrorCallbackRegister@callbackHandler	PTR FTN()void  size(3) Largest target is 1
		 -> UART1_DefaultOverrunErrorCallback(), 

    UART1_FramingErrorCallbackRegister@callbackHandler	PTR FTN()void  size(3) Largest target is 1
		 -> UART1_DefaultFramingErrorCallback(), 

    UART1_OverrunErrorHandler	PTR FTN()void  size(3) Largest target is 1
		 -> UART1_DefaultOverrunErrorCallback(), NULL(), 

    UART1_FramingErrorHandler	PTR FTN()void  size(3) Largest target is 1
		 -> UART1_DefaultFramingErrorCallback(), NULL(), 

    S2276$EventCallbackRegister	PTR FTN(PTR FTN()void ,)void  size(3) Largest target is 1
		 -> NULL(), 

    UART1.EventCallbackRegister	PTR FTN(PTR FTN()void ,)void  size(3) Largest target is 1
		 -> NULL(), 

    S2276$ParityErrorCallbackRegister	PTR FTN(PTR FTN()void ,)void  size(3) Largest target is 1
		 -> UART1_ParityErrorCallbackRegister(), 

    UART1.ParityErrorCallbackRegister	PTR FTN(PTR FTN()void ,)void  size(3) Largest target is 1
		 -> UART1_ParityErrorCallbackRegister(), 

    S2276$OverrunErrorCallbackRegister	PTR FTN(PTR FTN()void ,)void  size(3) Largest target is 1
		 -> UART1_OverrunErrorCallbackRegister(), 

    UART1.OverrunErrorCallbackRegister	PTR FTN(PTR FTN()void ,)void  size(3) Largest target is 1
		 -> UART1_OverrunErrorCallbackRegister(), 

    S2276$FramingErrorCallbackRegister	PTR FTN(PTR FTN()void ,)void  size(3) Largest target is 1
		 -> UART1_FramingErrorCallbackRegister(), 

    UART1.FramingErrorCallbackRegister	PTR FTN(PTR FTN()void ,)void  size(3) Largest target is 1
		 -> UART1_FramingErrorCallbackRegister(), 

    S2276$TxCollisionCallbackRegister	PTR FTN(PTR FTN()void ,)void  size(3) Largest target is 1
		 -> NULL(), 

    UART1.TxCollisionCallbackRegister	PTR FTN(PTR FTN()void ,)void  size(3) Largest target is 1
		 -> NULL(), 

    S2276$RxCompleteCallbackRegister	PTR FTN(PTR FTN()void ,)void  size(3) Largest target is 1
		 -> NULL(), 

    UART1.RxCompleteCallbackRegister	PTR FTN(PTR FTN()void ,)void  size(3) Largest target is 1
		 -> NULL(), 

    S2276$TxCompleteCallbackRegister	PTR FTN(PTR FTN()void ,)void  size(3) Largest target is 1
		 -> NULL(), 

    UART1.TxCompleteCallbackRegister	PTR FTN(PTR FTN()void ,)void  size(3) Largest target is 1
		 -> NULL(), 

    S2276$ErrorGet	PTR FTN()unsigned int  size(3) Largest target is 2
		 -> UART1_ErrorGet(), 

    UART1.ErrorGet	PTR FTN()unsigned int  size(3) Largest target is 2
		 -> UART1_ErrorGet(), 

    S2276$BaudRateGet	PTR FTN()unsigned long  size(3) Largest target is 1
		 -> NULL(), 

    UART1.BaudRateGet	PTR FTN()unsigned long  size(3) Largest target is 1
		 -> NULL(), 

    S2276$BaudRateSet	PTR FTN(unsigned long ,)void  size(3) Largest target is 1
		 -> NULL(), 

    UART1.BaudRateSet	PTR FTN(unsigned long ,)void  size(3) Largest target is 1
		 -> NULL(), 

    S2276$BRGCountGet	PTR FTN()unsigned long  size(3) Largest target is 1
		 -> NULL(), 

    UART1.BRGCountGet	PTR FTN()unsigned long  size(3) Largest target is 1
		 -> NULL(), 

    S2276$BRGCountSet	PTR FTN(unsigned long ,)void  size(3) Largest target is 1
		 -> NULL(), 

    UART1.BRGCountSet	PTR FTN(unsigned long ,)void  size(3) Largest target is 1
		 -> NULL(), 

    S2276$AutoBaudEventEnableGet	PTR FTN()_Bool  size(3) Largest target is 1
		 -> NULL(), 

    UART1.AutoBaudEventEnableGet	PTR FTN()_Bool  size(3) Largest target is 1
		 -> NULL(), 

    S2276$AutoBaudQuery	PTR FTN()_Bool  size(3) Largest target is 1
		 -> UART1_AutoBaudQuery(), 

    UART1.AutoBaudQuery	PTR FTN()_Bool  size(3) Largest target is 1
		 -> UART1_AutoBaudQuery(), 

    S2276$AutoBaudSet	PTR FTN(_Bool ,)void  size(3) Largest target is 1
		 -> UART1_AutoBaudSet(), 

    UART1.AutoBaudSet	PTR FTN(_Bool ,)void  size(3) Largest target is 1
		 -> UART1_AutoBaudSet(), 

    S2276$TransmitDisable	PTR FTN()void  size(3) Largest target is 1
		 -> UART1_TransmitDisable(), 

    UART1.TransmitDisable	PTR FTN()void  size(3) Largest target is 1
		 -> UART1_TransmitDisable(), 

    S2276$TransmitEnable	PTR FTN()void  size(3) Largest target is 1
		 -> UART1_TransmitEnable(), 

    UART1.TransmitEnable	PTR FTN()void  size(3) Largest target is 1
		 -> UART1_TransmitEnable(), 

    S2276$IsTxDone	PTR FTN()_Bool  size(3) Largest target is 1
		 -> UART1_IsTxDone(), 

    UART1.IsTxDone	PTR FTN()_Bool  size(3) Largest target is 1
		 -> UART1_IsTxDone(), 

    S2276$IsTxReady	PTR FTN()_Bool  size(3) Largest target is 1
		 -> UART1_IsTxReady(), 

    UART1.IsTxReady	PTR FTN()_Bool  size(3) Largest target is 1
		 -> UART1_IsTxReady(), 

    S2276$IsRxReady	PTR FTN()_Bool  size(3) Largest target is 1
		 -> UART1_IsRxReady(), 

    UART1.IsRxReady	PTR FTN()_Bool  size(3) Largest target is 1
		 -> UART1_IsRxReady(), 

    S2276$Write	PTR FTN(unsigned char ,)void  size(3) Largest target is 1
		 -> UART1_Write(), 

    UART1.Write	PTR FTN(unsigned char ,)void  size(3) Largest target is 1
		 -> UART1_Write(), 

    S2276$Read	PTR FTN()unsigned char  size(3) Largest target is 1
		 -> UART1_Read(), 

    UART1.Read	PTR FTN()unsigned char  size(3) Largest target is 1
		 -> UART1_Read(), 

    S2276$Deinitialize	PTR FTN()void  size(3) Largest target is 1
		 -> UART1_Deinitialize(), 

    UART1.Deinitialize	PTR FTN()void  size(3) Largest target is 1
		 -> UART1_Deinitialize(), 

    S2276$Initialize	PTR FTN()void  size(3) Largest target is 1
		 -> UART1_Initialize(), 

    UART1.Initialize	PTR FTN()void  size(3) Largest target is 1
		 -> UART1_Initialize(), 

    TMR2_OverflowCallbackRegister@InterruptHandler	PTR FTN()void  size(3) Largest target is 1
		 -> TMR2_DefaultOverflowCallback(), TMR1_DefaultOverflowCallback(), TMR0_DefaultOverflowCallback(), LAB_ISR(), 

    TMR2_OverflowCallback	PTR FTN()void  size(3) Largest target is 1
		 -> TMR2_DefaultOverflowCallback(), TMR1_DefaultOverflowCallback(), TMR0_DefaultOverflowCallback(), NULL(), 
		 -> LAB_ISR(), 

    tmr2.Tasks	PTR FTN()void  size(3) Largest target is 1
		 -> TMR2_Tasks(), TMR1_Tasks(), NULL(), 

    tmr2.TimeoutCallbackRegister	PTR FTN(PTR FTN()void ,)void  size(3) Largest target is 1
		 -> TMR2_OverflowCallbackRegister(), TMR1_OverflowCallbackRegister(), TMR0_OverflowCallbackRegister(), 

    tmr2.PeriodCountSet	PTR FTN(unsigned int ,)void  size(3) Largest target is 1
		 -> TMR2_PeriodCountSet(), TMR1_Write(), TMR0_Reload(), 

    tmr2.Stop	PTR FTN()void  size(3) Largest target is 1
		 -> TMR0_Stop(), TMR2_Stop(), TMR1_Stop(), 

    tmr2.Start	PTR FTN()void  size(3) Largest target is 1
		 -> TMR0_Start(), TMR2_Start(), TMR1_Start(), 

    tmr2.Initialize	PTR FTN()void  size(3) Largest target is 1
		 -> TMR2_Initialize(), TMR1_Initialize(), TMR0_Initialize(), 

    TMR1_GateCallbackRegister@CallbackHandler	PTR FTN()void  size(3) Largest target is 1
		 -> TMR1_DefaultGateCallback(), 

    TMR1_GateCallback	PTR FTN()void  size(3) Largest target is 1
		 -> TMR1_DefaultGateCallback(), NULL(), 

    TMR1_OverflowCallbackRegister@CallbackHandler	PTR FTN()void  size(3) Largest target is 1
		 -> TMR2_DefaultOverflowCallback(), TMR1_DefaultOverflowCallback(), TMR0_DefaultOverflowCallback(), LAB_ISR(), 

    TMR1_OverflowCallback	PTR FTN()void  size(3) Largest target is 1
		 -> TMR2_DefaultOverflowCallback(), TMR1_DefaultOverflowCallback(), TMR0_DefaultOverflowCallback(), NULL(), 
		 -> LAB_ISR(), 

    tmr1.Tasks	PTR FTN()void  size(3) Largest target is 1
		 -> TMR2_Tasks(), TMR1_Tasks(), NULL(), 

    tmr1.TimeoutCallbackRegister	PTR FTN(PTR FTN()void ,)void  size(3) Largest target is 1
		 -> TMR2_OverflowCallbackRegister(), TMR1_OverflowCallbackRegister(), TMR0_OverflowCallbackRegister(), 

    tmr1.PeriodCountSet	PTR FTN(unsigned int ,)void  size(3) Largest target is 1
		 -> TMR2_PeriodCountSet(), TMR1_Write(), TMR0_Reload(), 

    tmr1.Stop	PTR FTN()void  size(3) Largest target is 1
		 -> TMR0_Stop(), TMR2_Stop(), TMR1_Stop(), 

    tmr1.Start	PTR FTN()void  size(3) Largest target is 1
		 -> TMR0_Start(), TMR2_Start(), TMR1_Start(), 

    tmr1.Initialize	PTR FTN()void  size(3) Largest target is 1
		 -> TMR2_Initialize(), TMR1_Initialize(), TMR0_Initialize(), 

    TMR0_OverflowCallbackRegister@CallbackHandler	PTR FTN()void  size(3) Largest target is 1
		 -> TMR2_DefaultOverflowCallback(), TMR1_DefaultOverflowCallback(), TMR0_DefaultOverflowCallback(), LAB_ISR(), 

    TMR0_OverflowCallback	PTR FTN()void  size(3) Largest target is 1
		 -> TMR2_DefaultOverflowCallback(), TMR1_DefaultOverflowCallback(), TMR0_DefaultOverflowCallback(), NULL(), 
		 -> LAB_ISR(), 

    S1565TMR_INTERFACE$Tasks	PTR FTN()void  size(3) Largest target is 1
		 -> TMR2_Tasks(), TMR1_Tasks(), NULL(), 

    tmr0.Tasks	PTR FTN()void  size(3) Largest target is 1
		 -> TMR2_Tasks(), TMR1_Tasks(), NULL(), 

    S1565TMR_INTERFACE$TimeoutCallbackRegister	PTR FTN(PTR FTN()void ,)void  size(3) Largest target is 1
		 -> TMR2_OverflowCallbackRegister(), TMR1_OverflowCallbackRegister(), TMR0_OverflowCallbackRegister(), 

    tmr0.TimeoutCallbackRegister	PTR FTN(PTR FTN()void ,)void  size(3) Largest target is 1
		 -> TMR2_OverflowCallbackRegister(), TMR1_OverflowCallbackRegister(), TMR0_OverflowCallbackRegister(), 

    S1565TMR_INTERFACE$PeriodCountSet	PTR FTN(unsigned int ,)void  size(3) Largest target is 1
		 -> TMR2_PeriodCountSet(), TMR1_Write(), TMR0_Reload(), 

    tmr0.PeriodCountSet	PTR FTN(unsigned int ,)void  size(3) Largest target is 1
		 -> TMR2_PeriodCountSet(), TMR1_Write(), TMR0_Reload(), 

    S1565TMR_INTERFACE$Stop	PTR FTN()void  size(3) Largest target is 1
		 -> TMR0_Stop(), TMR2_Stop(), TMR1_Stop(), 

    tmr0.Stop	PTR FTN()void  size(3) Largest target is 1
		 -> TMR0_Stop(), TMR2_Stop(), TMR1_Stop(), 

    S1565TMR_INTERFACE$Start	PTR FTN()void  size(3) Largest target is 1
		 -> TMR0_Start(), TMR2_Start(), TMR1_Start(), 

    tmr0.Start	PTR FTN()void  size(3) Largest target is 1
		 -> TMR0_Start(), TMR2_Start(), TMR1_Start(), 

    S1565TMR_INTERFACE$Initialize	PTR FTN()void  size(3) Largest target is 1
		 -> TMR2_Initialize(), TMR1_Initialize(), TMR0_Initialize(), 

    tmr0.Initialize	PTR FTN()void  size(3) Largest target is 1
		 -> TMR2_Initialize(), TMR1_Initialize(), TMR0_Initialize(), 

    INT2_SetInterruptHandler@InterruptHandler	PTR FTN()void  size(3) Largest target is 1
		 -> INT2_DefaultInterruptHandler(), 

    INT2_InterruptHandler	PTR FTN()void  size(3) Largest target is 1
		 -> NULL(), INT2_DefaultInterruptHandler(), 

    INT1_SetInterruptHandler@InterruptHandler	PTR FTN()void  size(3) Largest target is 1
		 -> INT1_DefaultInterruptHandler(), 

    INT1_InterruptHandler	PTR FTN()void  size(3) Largest target is 1
		 -> NULL(), INT1_DefaultInterruptHandler(), 

    INT0_SetInterruptHandler@InterruptHandler	PTR FTN()void  size(3) Largest target is 1
		 -> INT0_DefaultInterruptHandler(), 

    INT0_InterruptHandler	PTR FTN()void  size(3) Largest target is 1
		 -> NULL(), INT0_DefaultInterruptHandler(), 

    PWM3_16BIT_Period_SetInterruptHandler@InterruptHandler	PTR FTN()void  size(3) Largest target is 1
		 -> PWM3_16BIT_Period_DefaultInterruptHandler(), 

    PWM3_16BIT_Slice1Output2_SetInterruptHandler@InterruptHandler	PTR FTN()void  size(3) Largest target is 1
		 -> PWM3_16BIT_Slice1Output2_DefaultInterruptHandler(), 

    PWM3_16BIT_Slice1Output1_SetInterruptHandler@InterruptHandler	PTR FTN()void  size(3) Largest target is 1
		 -> PWM3_16BIT_Slice1Output1_DefaultInterruptHandler(), 

    PWM3_16BIT_Period_InterruptHandler	PTR FTN()void  size(3) Largest target is 1
		 -> NULL(), PWM3_16BIT_Period_DefaultInterruptHandler(), 

    PWM3_16BIT_Slice1Output2_InterruptHandler	PTR FTN()void  size(3) Largest target is 1
		 -> NULL(), PWM3_16BIT_Slice1Output2_DefaultInterruptHandler(), 

    PWM3_16BIT_Slice1Output1_InterruptHandler	PTR FTN()void  size(3) Largest target is 1
		 -> NULL(), PWM3_16BIT_Slice1Output1_DefaultInterruptHandler(), 


Critical Paths under _main in COMRAM

    _main->_ADC
    _main->_VSR
    _VSR->_printf
    _SYSTEM_Initialize->_TMR1_Initialize
    _UART1_Initialize->_UART1_FramingErrorCallbackRegister
    _UART1_Initialize->_UART1_OverrunErrorCallbackRegister
    _UART1_Initialize->_UART1_ParityErrorCallbackRegister
    _TMR2_Initialize->_TMR2_OverflowCallbackRegister
    _TMR1_Initialize->_TMR1_GateCallbackRegister
    _TMR1_Initialize->_TMR1_OverflowCallbackRegister
    _TMR0_Initialize->_TMR0_OverflowCallbackRegister
    _PWM3_16BIT_Initialize->_PWM3_16BIT_Period_SetInterruptHandler
    _PWM3_16BIT_Initialize->_PWM3_16BIT_Slice1Output1_SetInterruptHandler
    _PWM3_16BIT_Initialize->_PWM3_16BIT_Slice1Output2_SetInterruptHandler
    _INTERRUPT_Initialize->_INT0_SetInterruptHandler
    _INTERRUPT_Initialize->_INT1_SetInterruptHandler
    _INTERRUPT_Initialize->_INT2_SetInterruptHandler
    _PWM->_printf
    _Interrupts->_TMR0_OverflowCallbackRegister
    _EEPROM->_EEPROM_Write
    _TMR1_Reload->_TMR1_Write
    _ADC->_printf
    _printf->_vfprintf
    _vfprintf->_vfpfcnvrt
    _vfpfcnvrt->_dtoa
    _dtoa->_pad
    _pad->_fputs
    _fputs->_fputc
    _abs->___awmod

Critical Paths under _INTERRUPT_InterruptManager in COMRAM

    None.

Critical Paths under _main in BANK5

    None.

Critical Paths under _INTERRUPT_InterruptManager in BANK5

    None.

Critical Paths under _main in BANK6

    None.

Critical Paths under _INTERRUPT_InterruptManager in BANK6

    None.

Critical Paths under _main in BANK7

    None.

Critical Paths under _INTERRUPT_InterruptManager in BANK7

    None.

Critical Paths under _main in BANK8

    None.

Critical Paths under _INTERRUPT_InterruptManager in BANK8

    None.

Critical Paths under _main in BANK9

    None.

Critical Paths under _INTERRUPT_InterruptManager in BANK9

    None.

Critical Paths under _main in BANK10

    None.

Critical Paths under _INTERRUPT_InterruptManager in BANK10

    None.

Critical Paths under _main in BANK11

    None.

Critical Paths under _INTERRUPT_InterruptManager in BANK11

    None.

Critical Paths under _main in BANK12

    None.

Critical Paths under _INTERRUPT_InterruptManager in BANK12

    None.

Critical Paths under _main in BANK13

    None.

Critical Paths under _INTERRUPT_InterruptManager in BANK13

    None.

Critical Paths under _main in BANK14

    None.

Critical Paths under _INTERRUPT_InterruptManager in BANK14

    None.

Critical Paths under _main in BANK15

    None.

Critical Paths under _INTERRUPT_InterruptManager in BANK15

    None.

Critical Paths under _main in BANK16

    None.

Critical Paths under _INTERRUPT_InterruptManager in BANK16

    None.

Critical Paths under _main in BANK17

    None.

Critical Paths under _INTERRUPT_InterruptManager in BANK17

    None.

Critical Paths under _main in BANK18

    None.

Critical Paths under _INTERRUPT_InterruptManager in BANK18

    None.

Critical Paths under _main in BANK19

    None.

Critical Paths under _INTERRUPT_InterruptManager in BANK19

    None.

Critical Paths under _main in BANK20

    None.

Critical Paths under _INTERRUPT_InterruptManager in BANK20

    None.

Critical Paths under _main in BANK21

    None.

Critical Paths under _INTERRUPT_InterruptManager in BANK21

    None.

Critical Paths under _main in BANK22

    None.

Critical Paths under _INTERRUPT_InterruptManager in BANK22

    None.

Critical Paths under _main in BANK23

    None.

Critical Paths under _INTERRUPT_InterruptManager in BANK23

    None.

Critical Paths under _main in BANK24

    None.

Critical Paths under _INTERRUPT_InterruptManager in BANK24

    None.

Critical Paths under _main in BANK25

    None.

Critical Paths under _INTERRUPT_InterruptManager in BANK25

    None.

Critical Paths under _main in BANK26

    None.

Critical Paths under _INTERRUPT_InterruptManager in BANK26

    None.

Critical Paths under _main in BANK27

    None.

Critical Paths under _INTERRUPT_InterruptManager in BANK27

    None.

Critical Paths under _main in BANK28

    None.

Critical Paths under _INTERRUPT_InterruptManager in BANK28

    None.

Critical Paths under _main in BANK29

    None.

Critical Paths under _INTERRUPT_InterruptManager in BANK29

    None.

Critical Paths under _main in BANK30

    None.

Critical Paths under _INTERRUPT_InterruptManager in BANK30

    None.

Critical Paths under _main in BANK31

    None.

Critical Paths under _INTERRUPT_InterruptManager in BANK31

    None.

Critical Paths under _main in BANK32

    None.

Critical Paths under _INTERRUPT_InterruptManager in BANK32

    None.

Critical Paths under _main in BANK33

    None.

Critical Paths under _INTERRUPT_InterruptManager in BANK33

    None.

Critical Paths under _main in BANK34

    None.

Critical Paths under _INTERRUPT_InterruptManager in BANK34

    None.

Critical Paths under _main in BANK35

    None.

Critical Paths under _INTERRUPT_InterruptManager in BANK35

    None.

Critical Paths under _main in BANK36

    None.

Critical Paths under _INTERRUPT_InterruptManager in BANK36

    None.

Call Graph Tables:

 ---------------------------------------------------------------------------------
 (Depth) Function   	        Calls       Base Space   Used Autos Params    Refs
 ---------------------------------------------------------------------------------
 (0) _main                                                 2     2      0   18965
                                             73 COMRAM     2     2      0
                                _ADC
                              _Blink
                             _EEPROM
                         _HelloWorld
                         _Interrupts
                                _PWM
                             _Rotate
                  _SYSTEM_Initialize
                        _SleepWakeUp
                             _Timers
                                _VSR
                      _checkButtonS1
                            _nextLab
 ---------------------------------------------------------------------------------
 (1) _nextLab                                              0     0      0       0
 ---------------------------------------------------------------------------------
 (1) _checkButtonS1                                        1     1      0       0
                                              2 COMRAM     1     1      0
 ---------------------------------------------------------------------------------
 (1) _VSR                                                  3     3      0    5500
                                             70 COMRAM     3     3      0
           _ADCC_GetSingleConversion
                             _printf
 ---------------------------------------------------------------------------------
 (1) _Timers                                               0     0      0     164
            _TMR1_HasOverflowOccured
                        _TMR1_Reload
                         _TMR1_Start
                          _TMR1_Stop
 ---------------------------------------------------------------------------------
 (1) _SleepWakeUp                                          0     0      0       0
 ---------------------------------------------------------------------------------
 (1) _SYSTEM_Initialize                                    0     0      0    1416
                    _ADCC_Initialize
                    _CLC1_Initialize
                   _CLOCK_Initialize
               _INTERRUPT_Initialize
                     _NVM_Initialize
             _PIN_MANAGER_Initialize
              _PWM3_16BIT_Initialize
                    _TMR0_Initialize
                    _TMR1_Initialize
                    _TMR2_Initialize
                   _UART1_Initialize
 ---------------------------------------------------------------------------------
 (2) _UART1_Initialize                                     0     0      0     360
 _UART1_FramingErrorCallbackRegister
 _UART1_OverrunErrorCallbackRegister
  _UART1_ParityErrorCallbackRegister
 ---------------------------------------------------------------------------------
 (3) _UART1_ParityErrorCallbackRegister                    3     0      3     120
                                              2 COMRAM     3     0      3
 ---------------------------------------------------------------------------------
 (3) _UART1_OverrunErrorCallbackRegister                   3     0      3     120
                                              2 COMRAM     3     0      3
 ---------------------------------------------------------------------------------
 (3) _UART1_FramingErrorCallbackRegister                   3     0      3     120
                                              2 COMRAM     3     0      3
 ---------------------------------------------------------------------------------
 (2) _TMR2_Initialize                                      0     0      0      98
      _TMR2_OverflowCallbackRegister
 ---------------------------------------------------------------------------------
 (3) _TMR2_OverflowCallbackRegister                        3     0      3      98
                                              2 COMRAM     3     0      3
 ---------------------------------------------------------------------------------
 (2) _TMR1_Initialize                                      2     2      0     196
                                              5 COMRAM     2     2      0
          _TMR1_GateCallbackRegister
      _TMR1_OverflowCallbackRegister
 ---------------------------------------------------------------------------------
 (3) _TMR1_OverflowCallbackRegister                        3     0      3      98
                                              2 COMRAM     3     0      3
 ---------------------------------------------------------------------------------
 (3) _TMR1_GateCallbackRegister                            3     0      3      98
                                              2 COMRAM     3     0      3
 ---------------------------------------------------------------------------------
 (2) _TMR0_Initialize                                      0     0      0     174
      _TMR0_OverflowCallbackRegister
 ---------------------------------------------------------------------------------
 (2) _PWM3_16BIT_Initialize                                0     0      0     294
_PWM3_16BIT_Period_SetInterruptHandl
_PWM3_16BIT_Slice1Output1_SetInterru
_PWM3_16BIT_Slice1Output2_SetInterru
 ---------------------------------------------------------------------------------
 (3) _PWM3_16BIT_Slice1Output2_SetInterruptHandler         3     0      3      98
                                              2 COMRAM     3     0      3
 ---------------------------------------------------------------------------------
 (3) _PWM3_16BIT_Slice1Output1_SetInterruptHandler         3     0      3      98
                                              2 COMRAM     3     0      3
 ---------------------------------------------------------------------------------
 (3) _PWM3_16BIT_Period_SetInterruptHandler                3     0      3      98
                                              2 COMRAM     3     0      3
 ---------------------------------------------------------------------------------
 (2) _PIN_MANAGER_Initialize                               0     0      0       0
 ---------------------------------------------------------------------------------
 (2) _NVM_Initialize                                       0     0      0       0
                    _NVM_StatusClear
 ---------------------------------------------------------------------------------
 (3) _NVM_StatusClear                                      0     0      0       0
 ---------------------------------------------------------------------------------
 (2) _INTERRUPT_Initialize                                 0     0      0     294
           _INT0_SetInterruptHandler
           _INT1_SetInterruptHandler
           _INT2_SetInterruptHandler
 ---------------------------------------------------------------------------------
 (3) _INT2_SetInterruptHandler                             3     0      3      98
                                              2 COMRAM     3     0      3
 ---------------------------------------------------------------------------------
 (3) _INT1_SetInterruptHandler                             3     0      3      98
                                              2 COMRAM     3     0      3
 ---------------------------------------------------------------------------------
 (3) _INT0_SetInterruptHandler                             3     0      3      98
                                              2 COMRAM     3     0      3
 ---------------------------------------------------------------------------------
 (2) _CLOCK_Initialize                                     0     0      0       0
 ---------------------------------------------------------------------------------
 (2) _CLC1_Initialize                                      0     0      0       0
 ---------------------------------------------------------------------------------
 (2) _ADCC_Initialize                                      0     0      0       0
 ---------------------------------------------------------------------------------
 (1) _Rotate                                               1     1      0       0
                                              2 COMRAM     1     1      0
 ---------------------------------------------------------------------------------
 (1) _PWM                                                  1     1      0    5620
                                             70 COMRAM     1     1      0
           _ADCC_GetSingleConversion
     _PWM3_16BIT_LoadBufferRegisters
_PWM3_16BIT_SetSlice1Output1DutyCycl
              _PWM_Output_D5_Disable
               _PWM_Output_D5_Enable
                         _TMR2_Start
                          _TMR2_Stop
                             _printf
 ---------------------------------------------------------------------------------
 (2) _TMR2_Stop                                            0     0      0       0
 ---------------------------------------------------------------------------------
 (2) _TMR2_Start                                           0     0      0       0
 ---------------------------------------------------------------------------------
 (2) _PWM_Output_D5_Enable                                 0     0      0       0
 ---------------------------------------------------------------------------------
 (2) _PWM_Output_D5_Disable                                0     0      0       0
 ---------------------------------------------------------------------------------
 (2) _PWM3_16BIT_SetSlice1Output1DutyCycleRegister         2     0      2     120
                                              2 COMRAM     2     0      2
 ---------------------------------------------------------------------------------
 (2) _PWM3_16BIT_LoadBufferRegisters                       0     0      0       0
 ---------------------------------------------------------------------------------
 (1) _Interrupts                                           0     0      0     174
      _TMR0_OverflowCallbackRegister
 ---------------------------------------------------------------------------------
 (3) _TMR0_OverflowCallbackRegister                        3     0      3     174
                                              2 COMRAM     3     0      3
 ---------------------------------------------------------------------------------
 (1) _HelloWorld                                           0     0      0       0
 ---------------------------------------------------------------------------------
 (1) _EEPROM                                               1     1      0     427
                                             10 COMRAM     1     1      0
           _ADCC_GetSingleConversion
                        _EEPROM_Read
                       _EEPROM_Write
 ---------------------------------------------------------------------------------
 (2) _EEPROM_Write                                         8     4      4     263
                                              2 COMRAM     8     4      4
 ---------------------------------------------------------------------------------
 (2) _EEPROM_Read                                          6     3      3     142
                                              2 COMRAM     6     3      3
 ---------------------------------------------------------------------------------
 (1) _Blink                                                1     1      0     164
                                              4 COMRAM     1     1      0
            _TMR1_HasOverflowOccured
                        _TMR1_Reload
                         _TMR1_Start
                          _TMR1_Stop
 ---------------------------------------------------------------------------------
 (2) _TMR1_Stop                                            0     0      0       0
 ---------------------------------------------------------------------------------
 (2) _TMR1_Start                                           0     0      0       0
 ---------------------------------------------------------------------------------
 (2) _TMR1_Reload                                          0     0      0     164
                         _TMR1_Write
 ---------------------------------------------------------------------------------
 (3) _TMR1_Write                                           2     0      2     164
                                              2 COMRAM     2     0      2
 ---------------------------------------------------------------------------------
 (2) _TMR1_HasOverflowOccured                              0     0      0       0
 ---------------------------------------------------------------------------------
 (1) _ADC                                                  3     3      0    5500
                                             70 COMRAM     3     3      0
           _ADCC_GetSingleConversion
                             _printf
 ---------------------------------------------------------------------------------
 (2) _printf                                               8     4      4    5478
                                             64 COMRAM     6     2      4
                           _vfprintf
 ---------------------------------------------------------------------------------
 (3) _vfprintf                                             8     2      6    5196
                                             56 COMRAM     8     2      6
                          _vfpfcnvrt
 ---------------------------------------------------------------------------------
 (4) _vfpfcnvrt                                           19    13      6    4846
                                             42 COMRAM    14     8      6
                               _dtoa
                              _fputc
 ---------------------------------------------------------------------------------
 (5) _dtoa                                                13     9      4    3626
                                             29 COMRAM    13     9      4
                            ___awdiv
                            ___awmod
                                _abs
                                _pad
 ---------------------------------------------------------------------------------
 (6) _pad                                                 11     5      6    1999
                                             18 COMRAM    11     5      6
                              _fputc
                              _fputs
 ---------------------------------------------------------------------------------
 (7) _fputs                                                7     3      4     931
                                             11 COMRAM     7     3      4
                              _fputc
 ---------------------------------------------------------------------------------
 (5) _fputc                                                9     5      4     682
                                              2 COMRAM     9     5      4
                              _putch
 ---------------------------------------------------------------------------------
 (6) _putch                                                1     1      0       0
 ---------------------------------------------------------------------------------
 (6) _abs                                                  4     2      2     142
                                              8 COMRAM     4     2      2
                            ___awmod (ARG)
 ---------------------------------------------------------------------------------
 (6) ___awmod                                              6     2      4     448
                                              2 COMRAM     6     2      4
 ---------------------------------------------------------------------------------
 (6) ___awdiv                                              8     4      4     452
                                              2 COMRAM     8     4      4
 ---------------------------------------------------------------------------------
 (2) _ADCC_GetSingleConversion                             5     3      2      22
                                              2 COMRAM     5     3      2
 ---------------------------------------------------------------------------------
 Estimated maximum stack depth 7
 ---------------------------------------------------------------------------------
 (Depth) Function   	        Calls       Base Space   Used Autos Params    Refs
 ---------------------------------------------------------------------------------
 (10) _INTERRUPT_InterruptManager                          2     2      0       0
                                              0 COMRAM     2     2      0
                    _PIN_MANAGER_IOC
                   _TMR0_OverflowISR
 ---------------------------------------------------------------------------------
 (11) _TMR0_OverflowISR                                    0     0      0       0
                                NULL *
                            _LAB_ISR *
       _TMR0_DefaultOverflowCallback *
       _TMR1_DefaultOverflowCallback *
       _TMR2_DefaultOverflowCallback *
 ---------------------------------------------------------------------------------
 (12) _TMR2_DefaultOverflowCallback                        0     0      0       0
 ---------------------------------------------------------------------------------
 (12) _TMR1_DefaultOverflowCallback                        0     0      0       0
 ---------------------------------------------------------------------------------
 (12) _TMR0_DefaultOverflowCallback                        0     0      0       0
 ---------------------------------------------------------------------------------
 (12) _LAB_ISR                                             0     0      0       0
 ---------------------------------------------------------------------------------
 (12) NULL(Fake)                                           0     0      0       0
 ---------------------------------------------------------------------------------
 (11) _PIN_MANAGER_IOC                                     0     0      0       0
 ---------------------------------------------------------------------------------
 Estimated maximum stack depth 12
 ---------------------------------------------------------------------------------

 Call Graph Graphs:

 _main (ROOT)
   _ADC
     _ADCC_GetSingleConversion
     _printf
       _vfprintf
         _vfpfcnvrt
           _dtoa
             ___awdiv
             ___awmod
             _abs
               ___awmod (ARG)
             _pad
               _fputc
                 _putch
               _fputs
                 _fputc
           _fputc
   _Blink
     _TMR1_HasOverflowOccured
     _TMR1_Reload
       _TMR1_Write
     _TMR1_Start
     _TMR1_Stop
   _EEPROM
     _ADCC_GetSingleConversion
     _EEPROM_Read
     _EEPROM_Write
   _HelloWorld
   _Interrupts
     _TMR0_OverflowCallbackRegister
   _PWM
     _ADCC_GetSingleConversion
     _PWM3_16BIT_LoadBufferRegisters
     _PWM3_16BIT_SetSlice1Output1DutyCycleRegister
     _PWM_Output_D5_Disable
     _PWM_Output_D5_Enable
     _TMR2_Start
     _TMR2_Stop
     _printf
   _Rotate
   _SYSTEM_Initialize
     _ADCC_Initialize
     _CLC1_Initialize
     _CLOCK_Initialize
     _INTERRUPT_Initialize
       _INT0_SetInterruptHandler
       _INT1_SetInterruptHandler
       _INT2_SetInterruptHandler
     _NVM_Initialize
       _NVM_StatusClear
     _PIN_MANAGER_Initialize
     _PWM3_16BIT_Initialize
       _PWM3_16BIT_Period_SetInterruptHandler
       _PWM3_16BIT_Slice1Output1_SetInterruptHandler
       _PWM3_16BIT_Slice1Output2_SetInterruptHandler
     _TMR0_Initialize
       _TMR0_OverflowCallbackRegister
     _TMR1_Initialize
       _TMR1_GateCallbackRegister
       _TMR1_OverflowCallbackRegister
     _TMR2_Initialize
       _TMR2_OverflowCallbackRegister
     _UART1_Initialize
       _UART1_FramingErrorCallbackRegister
       _UART1_OverrunErrorCallbackRegister
       _UART1_ParityErrorCallbackRegister
   _SleepWakeUp
   _Timers
     _TMR1_HasOverflowOccured
     _TMR1_Reload
     _TMR1_Start
     _TMR1_Stop
   _VSR
     _ADCC_GetSingleConversion
     _printf
   _checkButtonS1
   _nextLab

 _INTERRUPT_InterruptManager (ROOT)
   _PIN_MANAGER_IOC
   _TMR0_OverflowISR
     NULL(Fake) *
     _LAB_ISR *
     _TMR0_DefaultOverflowCallback *
     _TMR1_DefaultOverflowCallback *
     _TMR2_DefaultOverflowCallback *

 Address spaces:
Name               Size   Autos  Total    Cost      Usage
BIGRAM            1FFF      0       0      69        0.0%
EEDATA             400      0       0       0        0.0%
BITBIGSFRllllhh    120      0       0      93        0.0%
BITBIGSFR_1        100      0       0      68        0.0%
BITBANK36          100      0       0      66        0.0%
BANK36             100      0       0      67        0.0%
BITBANK35          100      0       0      64        0.0%
BANK35             100      0       0      65        0.0%
BITBANK34          100      0       0      62        0.0%
BANK34             100      0       0      63        0.0%
BITBANK33          100      0       0      60        0.0%
BANK33             100      0       0      61        0.0%
BITBANK32          100      0       0      58        0.0%
BANK32             100      0       0      59        0.0%
BITBANK31          100      0       0      56        0.0%
BANK31             100      0       0      57        0.0%
BITBANK30          100      0       0      54        0.0%
BANK30             100      0       0      55        0.0%
BITBANK29          100      0       0      52        0.0%
BANK29             100      0       0      53        0.0%
BITBANK28          100      0       0      50        0.0%
BANK28             100      0       0      51        0.0%
BITBANK27          100      0       0      48        0.0%
BANK27             100      0       0      49        0.0%
BITBANK26          100      0       0      46        0.0%
BANK26             100      0       0      47        0.0%
BITBANK25          100      0       0      44        0.0%
BANK25             100      0       0      45        0.0%
BITBANK24          100      0       0      42        0.0%
BANK24             100      0       0      43        0.0%
BITBANK23          100      0       0      40        0.0%
BANK23             100      0       0      41        0.0%
BITBANK22          100      0       0      38        0.0%
BANK22             100      0       0      39        0.0%
BITBANK21          100      0       0      36        0.0%
BANK21             100      0       0      37        0.0%
BITBANK20          100      0       0      34        0.0%
BANK20             100      0       0      35        0.0%
BITBANK19          100      0       0      32        0.0%
BANK19             100      0       0      33        0.0%
BITBANK18          100      0       0      30        0.0%
BANK18             100      0       0      31        0.0%
BITBANK17          100      0       0      28        0.0%
BANK17             100      0       0      29        0.0%
BITBANK16          100      0       0      26        0.0%
BANK16             100      0       0      27        0.0%
BITBANK15          100      0       0      24        0.0%
BANK15             100      0       0      25        0.0%
BITBANK14          100      0       0      22        0.0%
BANK14             100      0       0      23        0.0%
BITBANK13          100      0       0      20        0.0%
BANK13             100      0       0      21        0.0%
BITBANK12          100      0       0      18        0.0%
BANK12             100      0       0      19        0.0%
BITBANK11          100      0       0      16        0.0%
BANK11             100      0       0      17        0.0%
BITBANK10          100      0       0      14        0.0%
BANK10             100      0       0      15        0.0%
BITBANK9           100      0       0      12        0.0%
BANK9              100      0       0      13        0.0%
BITBANK8           100      0       0      10        0.0%
BANK8              100      0       0      11        0.0%
BITBANK7           100      0       0       8        0.0%
BANK7              100      0       0       9        0.0%
BITBANK6           100      0       0       6        0.0%
BANK6              100      0       0       7        0.0%
BITBIGSFRlllhhl     B1      0       0      86        0.0%
BITBANK5            A0      0       0       4        0.0%
BANK5               A0      0      50       5       50.0%
BITBIGSFRlllhhl     64      0       0      87        0.0%
BITCOMRAM           5F      0       0       0        0.0%
COMRAM              5F     4B      5F       1      100.0%
BITBIGSFRlllhhl     5A      0       0      90        0.0%
BITBIGSFRllhlhh     56      0       0      82        0.0%
BITBIGSFRllllll     40      0       0      99        0.0%
BITBIGSFRllllhl     33      0       0      97        0.0%
BITBIGSFRlllllh     30      0       0      98        0.0%
BITBIGSFRllllhl     20      0       0      94        0.0%
BITBIGSFRhhl        1E      0       0      71        0.0%
BITBIGSFRlllhhl     17      0       0      88        0.0%
BITBIGSFRlllhhl     13      0       0      89        0.0%
BITBIGSFRllhlhh     11      0       0      81        0.0%
BITBIGSFRlllhhl      E      0       0      91        0.0%
BITBIGSFRllhhlh      8      0       0      78        0.0%
BITBIGSFRhhh         7      0       0      70        0.0%
BITBIGSFRlllhl       7      0       0      92        0.0%
BITBIGSFRhlhh        6      0       0      72        0.0%
BITBIGSFRlhhh        5      0       0      75        0.0%
BITBIGSFRllhlhh      5      0       0      84        0.0%
BITBIGSFRhlhl        4      0       0      73        0.0%
BITBIGSFRllhlhh      3      0       0      83        0.0%
BITBIGSFRllhhll      3      0       0      79        0.0%
BITBIGSFRhll         3      0       0      74        0.0%
BITBIGSFRllhlhh      2      0       0      80        0.0%
BITBIGSFRlhhl        2      0       0      76        0.0%
BITBIGSFRlhl         2      0       0      77        0.0%
BITBIGSFRllllhl      1      0       0      95        0.0%
BITBIGSFRllllhl      1      0       0      96        0.0%
BITBIGSFRllhll       1      0       0      85        0.0%
BIGSFR_1             0      0       0     200        0.0%
BIGSFR               0      0       0     200        0.0%
BITSFR_6             0      0       0     200        0.0%
SFR_6                0      0       0     200        0.0%
BITSFR_5             0      0       0     200        0.0%
SFR_5                0      0       0     200        0.0%
BITSFR_4             0      0       0     200        0.0%
SFR_4                0      0       0     200        0.0%
BITSFR_3             0      0       0     200        0.0%
SFR_3                0      0       0     200        0.0%
BITSFR_2             0      0       0     200        0.0%
SFR_2                0      0       0     200        0.0%
BITSFR_1             0      0       0     200        0.0%
SFR_1                0      0       0     200        0.0%
BITSFR               0      0       0     200        0.0%
SFR                  0      0       0     200        0.0%
STACK                0      0       0       2        0.0%
NULL                 0      0       0       0        0.0%
ABS                  0      0      AF     100        0.0%
DATA                 0      0      AF       3        0.0%
CODE                 0      0       0       0        0.0%


Microchip Technology PIC18 Macro Assembler V2.41 build 20230208172133 
Symbol Table                                                                                   Wed May 31 10:53:08 2023

                            fp__TMR2_OverflowCallbackRegister 0000  
                              ?_TMR2_OverflowCallbackRegister 0503  
                                                          l22 3616  
                                                          l17 35EC  
                                                          l19 3600  
                                                          l60 2E98  
                                                          l55 2E40  
                                                          l83 3252  
                                                          l87 32AC  
                                                ___awdiv@sign 0508  
                                                         l110 2FC8  
                                                         l113 303C  
                                                         l140 2CAC  
                                                         l141 2D3A  
                                                         l230 3084  
                                                         l233 30C2  
                                                         l402 330C  
                                                         l226 3054  
                                                         l147 2D4E  
                                                         l316 30D8  
                                                         l414 3756  
                                                         l262 351E  
                                                         l319 3146  
                                                         _ADC 2FB4  
                                                         l192 38F6  
                                                         l512 368A  
                                                         l417 3776  
                                                         l267 354A  
                                                         l195 3912  
                                                         l291 3466  
                                                         l268 354C  
                                                         l605 3748  
                                                         l269 3552  
                                                         l189 2F28  
                                                         l550 39D0  
                                                         l702 396C  
                                                         l608 33BC  
                                                         l561 39D6  
                                                         l705 395E  
                                                         l708 397A  
                                                         l910 39A4  
                                                         l681 39CA  
                                                         l826 2B08  
                                                         l923 3996  
                                                         l844 38DA  
                                                         l669 31C0  
                                                         l687 39F2  
                                                         l936 3988  
                                                         l891 35D6  
                                                         l964 36EC  
                                                         l997 37CC  
                                                         u430 35E8  
                                                         _PR2 0323  
                                                         u431 35E4  
                                                         u440 3600  
                                                         u520 324C  
                                                         u441 35FC  
                                                         u521 3248  
                                                         u450 3612  
                                                         u530 326A  
                                                         u451 360E  
                                                         u531 3266  
                                                         u540 328E  
                                                         u541 328A  
                                                         u390 3924  
                                                         u550 32A8  
                                                         u391 391E  
                                                         u551 32A4  
                                                         u800 3462  
                                                         u801 345E  
                                                         u396 3926  
                                                         u900 38BA  
                                                         u901 38B6  
                                                         u780 3424  
                                                         u781 3420  
                                                         u790 3446  
                                                         u870 34CA  
                                                         u791 3442  
                                                         u871 34C6  
                                                         u880 34D8  
                                                         u881 34D4  
                                                         u890 34FE  
                                                         u891 34FA  
                                                         _PWM 2E9A  
                                                         _VSR 2C98  
                                  ??_INT0_SetInterruptHandler 0506  
                                             _timer1ReloadVal 054C  
                                                         _abs 3618  
                                                         _pad 31C2  
                                                ___awmod@sign 0508  
                                             _TMR2_Initialize 36EE  
                                                         tosl 04FD  
                                                         wreg 04E8  
                           __end_of_TMR1_GateCallbackRegister 3952  
                                              _UART1_IsTxDone 0000  
                                             __end_of_LAB_ISR 38A4  
                                                        ?_ADC 0501  
                                    _UART1_ParityErrorHandler 0560  
                                              _UART1_ErrorGet 0000  
                                                        ?_PWM 0501  
                                                        ?_VSR 0501  
                                                        l1100 3942  
                                                        l1113 3950  
                                                        l1106 3926  
                                                        l1019 39B2  
                                                        ?_abs 0509  
                                                        l1071 3364  
                                                        l2202 3656  
                                                        l1074 39EE  
                                                        l1085 37F6  
                                                        l1077 39E8  
                                                        l1165 371A  
                                                        l2214 2BD2  
                                                        l2222 3596  
                                                        l1174 39E2  
                                                        l1088 39C0  
                                                        l2225 39F4  
                                                        l2137 381C  
                                                        l1177 39DC  
                                                        l2170 26E2  
                                                        l2163 323A  
                                                        l2171 2728  
                                                        l1452 3506  
                                                        l1189 3934  
                                                        l1293 2FB2  
                                                        l4101 2970  
                                                        l2182 2824  
                                                        l1374 3882  
                                                        l1382 383E  
                                                        l1703 2DFE  
                                                        l2159 31E4  
                                                        l2511 38E6  
                                                        l4111 2998  
                                                        l4103 2978  
                                                        l2168 26DA  
                                                        l1448 34F0  
                                                        l1456 38BE  
                                                        l2521 39F0  
                                                        l2513 38F4  
                                                        l2601 2A3E  
                                                        l4113 29A0  
                                                        l4105 2980  
                                                        l4121 29B8  
                                                        l1378 3860  
                                                        l2195 34B8  
                                                        l2515 39DE  
                                                        l2523 39D8  
                                                        l2427 39D2  
                                                        l2611 2AA0  
                                                        l2603 2A56  
                                                        l4115 29A8  
                                                        l4107 2988  
                                                        l4123 2A22  
                                                        l3501 2D9E  
                                                        l3421 2B1C  
                                                        l2189 2958  
                                                        l2525 38F8  
                                                        l2509 38DC  
                                                        l2613 2AA2  
                                                        l2605 2A5C  
                                                        l4125 2A32  
                                                        l4117 29B0  
                                                        l4109 2990  
                                                        l3511 2DD8  
                                                        l3503 2DA6  
                                                        l2199 364E  
                                                        l3423 2B2E  
                                                        l2527 3902  
                                                        l2615 2AA4  
                                                        l2607 2A70  
                                                        l4151 29CC  
                                                        l3441 2BD4  
                                                        l3505 2DB4  
                                                        l3513 2DDE  
                                                        l3425 2B38  
                                                        l3433 3554  
                                                        l3521 31C2  
                                                        l3601 289E  
                                                        l2529 3910  
                                                        l2721 3250  
                                                        l2617 2AB6  
                                                        l2609 2A9E  
                                                        l1690 2C96  
                                                        l3451 2C00  
                                                        l3443 2BD8  
                                                        l3515 2DEE  
                                                        l3507 2DCA  
                                                        l3427 2B56  
                                                        l3419 2B0A  
                                                        l3435 3560  
                                                        l3531 3208  
                                                        l3523 31D0  
                                                        l3603 28BE  
                                                        l2483 39EA  
                                                        l2491 39E4  
                                                        l2731 328E  
                                                        l2723 325A  
                                                        l2571 3308  
                                                        l2619 38C0  
                                                        l3461 2C2E  
                                                        l3453 2C08  
                                                        l3445 2BE6  
                                                        l3517 2DF6  
                                                        l3509 2DD2  
                                                        l3429 2B8C  
                                                        l3437 3572  
                                                        l3533 3226  
                                                        l3525 31DC  
                                                        l3541 26A6  
                                                        l3605 2902  
                                                        l3613 292C  
                                                        l2485 3914  
                                                        l2733 3292  
                                                        l2725 326A  
                                                        l2717 323C  
                                                        l2573 330A  
                                                        l3621 3960  
                                                        l4093 295A  
                                                        l3471 2C68  
                                                        l3463 2C36  
                                                        l3455 2C0C  
                                                        l3447 2BEE  
                                                        l3535 3618  
                                                        l3439 3576  
                                                        l3527 31F0  
                                                        l3551 26FA  
                                                        l3543 26B6  
                                                        l3711 338E  
                                                        l2727 3278  
                                                        l2735 3298  
                                                        l2719 324C  
                                                        l2575 3658  
                                                        l3631 397C  
                                                        l3623 3952  
                                                        l2911 34D8  
                                                        l4095 295E  
                                                        l3481 2C8E  
                                                        l3473 2C6A  
                                                        l3465 2C44  
                                                        l3457 2C14  
                                                        l3449 2BF2  
                                                        l3537 3632  
                                                        l3529 3204  
                                                        l3561 2730  
                                                        l3553 2700  
                                                        l3545 26BE  
                                                        l3609 291A  
                                                        l3641 37E0  
                                                        l3721 33AC  
                                                        l3713 3392  
                                                        l3705 3366  
                                                        l2681 35F0  
                                                        l2737 32A8  
                                                        l2729 327C  
                                                        l2569 32AE  
                                                        l2577 39CC  
                                                        l3625 396E  
                                                        l3633 3936  
                                                        l3801 3714  
                                                        l2913 34E8  
                                                        l2921 38AA  
                                                        l4097 2960  
                                                        l3475 2C70  
                                                        l3467 2C4A  
                                                        l3459 2C26  
                                                        l3491 2D6A  
                                                        l3571 277C  
                                                        l3563 2738  
                                                        l3555 2710  
                                                        l3547 26CE  
                                                        l3539 2692  
                                                        l3643 37E4  
                                                        l3731 3744  
                                                        l3723 33B6  
                                                        l3715 3396  
                                                        l3707 336E  
                                                        l2683 3602  
                                                        l3619 39A6  
                                                        l3627 3998  
                                                        l3635 3944  
                                                        l3651 3928  
                                                        l3811 2FA8  
                                                        l3803 2F2A  
                                                        l2915 34FE  
                                                        l2907 34BA  
                                                        l2923 38BA  
                                                        l4099 2968  
                                                        l3469 2C60  
                                                        l3477 2C76  
                                                        l3493 2D6E  
                                                        l3485 2D50  
                                                        l3581 27EE  
                                                        l3565 273E  
                                                        l3573 2798  
                                                        l3557 271C  
                                                        l3549 26EA  
                                                        l3645 37E8  
                                                        l3637 37CE  
                                                        l3821 2E1C  
                                                        l3813 2E00  
                                                        l3725 371C  
                                                        l3717 339E  
                                                        l3709 3372  
                                                        l2685 3612  
                                                        l2677 35D8  
                                                        l3901 2F1C  
                                                        l3629 398A  
                                                        l3741 3184  
                                                        l3653 3862  
                                                        l3661 381E  
                                                        l3805 2F78  
                                                        l2861 3446  
                                                        l2853 3414  
                                                        l2909 34CA  
                                                        l2917 38A4  
                                                        ?_pad 0513  
                                                        l3479 2C86  
                                                        l3495 2D7C  
                                                        l3487 2D54  
                                                        l3583 27F4  
                                                        l3575 27B2  
                                                        l3567 2770  
                                                        l3559 2724  
                                                        l3591 284E  
                                                        l3671 34B0  
                                                        l3639 37DE  
                                                        l3647 37EE  
                                                        l3831 2E48  
                                                        l3815 2E10  
                                                        l3727 3720  
                                                        l3719 33A2  
                                                        l2679 35E8  
                                                        l3903 2F20  
                                                        l3751 319C  
                                                        l3743 3186  
                                                        l3735 3148  
                                                        l3655 3876  
                                                        l3663 3832  
                                                        l3807 2F88  
                                                        l2863 3452  
                                                        l2855 3424  
                                                        l3911 3058  
                                                        l2919 38A8  
                                                        l3681 3754  
                                                        l3497 2D84  
                                                        l3489 2D62  
                                                        l3585 2804  
                                                        l3577 27C4  
                                                        l3569 2776  
                                                        l3593 285C  
                                                        l3665 3468  
                                                        l3649 37F2  
                                                        l3841 2E94  
                                                        l3833 2E5A  
                                                        l3825 2E2C  
                                                        l3817 2E14  
                                                        l3729 373C  
                                                        l3761 35AE  
                                                        l3753 31AC  
                                                        l3745 3188  
                                                        l3737 3180  
                                                        l3657 3840  
                                                        l3809 2F98  
                                                        l2865 3462  
                                                        l2857 3432  
                                                        l3921 3086  
                                                        l3913 305C  
                                                        l3905 303E  
                                                        l3683 3764  
                                                        l3499 2D96  
                                                        l3579 27DE  
                                                        l3595 286A  
                                                        l3667 3474  
                                                        l3851 2FF6  
                                                        l3843 2FB4  
                                                        l3675 39B4  
                                                        l3835 2E7C  
                                                        l3827 2E42  
                                                        l3819 2E18  
                                                        l3763 35B0  
                                                        l3755 31BC  
                                                        l3747 318A  
                                                        l3739 3182  
                                                        l3771 37B2  
                                                        l3659 3854  
                                                        l2859 3436  
                                                        l3923 308A  
                                                        l3931 30AA  
                                                        l3907 304E  
                                                        l3915 3060  
                                                        l3677 374C  
                                                        l3597 286E  
                                                        l3589 2826  
                                                        l3669 3490  
                                                        l3853 3022  
                                                        l3845 2FC4  
                                                        l3829 2E46  
                                                        l3837 2E80  
                                                        l3941 351C  
                                                        l3693 39C2  
                                                        l3765 35C2  
                                                        l3757 3598  
                                                        l3749 318C  
                                                        l3773 37C2  
                                                        l3781 3324  
                                                        l3933 30BA  
                                                        l3925 308E  
                                                        l3909 3052  
                                                        l3861 2CA8  
                                                        l3679 3750  
                                                        l3599 287E  
                                                        l3687 37F8  
                                                        l3855 3028  
                                                        l3847 2FCC  
                                                        l3839 2E90  
                                                        l3943 3522  
                                                        l3695 39C6  
                                                        l3767 35C4  
                                                        l3759 359E  
                                                        l3775 37C4  
                                                        l3791 335E  
                                                        l3783 333A  
                                                        l3935 30BE  
                                                        l3927 30A0  
                                                        l3919 3070  
                                                        l3863 2CB4  
                                                        l3689 3800  
                                                        l3857 3038  
                                                        l3849 2FDC  
                                                        l3961 30DC  
                                                        l3945 3524  
                                                        l3953 353A  
                                                        l3937 3508  
                                                        l3881 2E9A  
                                                        l3777 37C6  
                                                        l3769 37A4  
                                                        l3785 334A  
                                                        l3793 36EE  
                                                        l3929 30A4  
                                                        l3873 2D08  
                                                        l3865 2CC4  
                                                        l3963 30EC  
                                                        l3971 3132  
                                                        l3955 354E  
                                                        l3947 3526  
                                                        l3939 3518  
                                                        l3891 2ECA  
                                                        l3883 2EAA  
                                                        l3787 335A  
                                                        l3779 330E  
                                                        l3795 36FC  
                                                        l3875 2D1A  
                                                        l3867 2CD4  
                                                        l3859 2C98  
                                                        l3973 3142  
                                                        l3965 3106  
                                                        l3957 30C4  
                                                        l3949 3536  
                                                        l3893 2EE8  
                                                        l3885 2EAE  
                                                        l3789 335C  
                                                        l3797 3702  
                                                        l3981 36C0  
                                                        l3877 2D36  
                                                        l3869 2D00  
                                                        l3967 311A  
                                                        l3959 30D4  
                                                        l3895 2EFC  
                                                        l3887 2EB6  
                                                        l3799 3712  
                                                        l3991 36E0  
                                                        l3983 36D0  
                                                        l3879 2D4A  
                                                        l3969 312C  
                                                        l3897 2F08  
                                                        l3889 2EBA  
                                                        l3993 36E4  
                                                        l3985 36D4  
                                                        l3899 2F0C  
                                                        l3995 36E8  
                                                        l3987 36D8  
                                                        l3989 36DC  
                                                        STR_1 267F  
                                                        STR_2 267F  
                                                        STR_3 267F  
                                                        u2000 30BA  
                                                        u2001 30B6  
                                                        u2010 3518  
                                                        u2011 3514  
                                                        u2020 354A  
                                                        u2021 3546  
                                                        u2030 30D4  
                                                        u2031 30D0  
                                                        u1400 2C00  
                                                        u2040 30EC  
                                                        u1401 2BFC  
                                                        u2041 30E8  
                                                        u1410 2C26  
                                                        u1411 2C22  
                                                        u1420 2C44  
                                                        u1500 2DEE  
                                                        u1340 2B1C  
                                                        u2060 3142  
                                                        u1421 2C40  
                                                        u1501 2DEA  
                                                        u1341 2B18  
                                                        u2061 313E  
                                                        _LATA 04BE  
                                                        u1430 2C60  
                                                        u1350 2B2E  
                                                        u1510 31D0  
                                                        _LATB 04BF  
                                                        u1431 2C5C  
                                                        u1351 2B2A  
                                                        u1511 31CC  
                                                        u2055 30F6  
                                                        _LATC 04C0  
                                                        u1440 2C86  
                                                        u1360 2B56  
                                                        u1520 3226  
                                                        u1600 27B2  
                                                        _LATD 04C1  
                                                        u1441 2C82  
                                                        u1361 2B52  
                                                        u1521 3222  
                                                        u1601 27AE  
                                                        _LATE 04C2  
                                                        u1450 2D62  
                                                        u1530 3632  
                                                        u1370 2B8C  
                                                        u1610 27C4  
                                                        u2410 2A32  
                                                        u1451 2D5E  
                                                        u1531 362E  
                                                        u1371 2B88  
                                                        u1611 27C0  
                                                        u2411 2A2E  
                                                        u1460 2D7C  
                                                        u1380 3596  
                                                        u1620 27DE  
                                                        u1540 26A2  
                                                        u1700 3832  
                                                        u1461 2D78  
                                                        u1381 3592  
                                                        u1621 27DA  
                                                        u1541 269C  
                                                        u1701 382E  
                                                        u1390 2BE6  
                                                        u1470 2D96  
                                                        u1630 27EE  
                                                        u1550 26A4  
                                                        u1710 34B0  
                                                        u1391 2BE2  
                                                        u1471 2D92  
                                                        u1631 27EA  
                                                        u1711 34AC  
                                                        u1720 3764  
                                                        u1480 2DB4  
                                                        u1560 26B6  
                                                        u1640 284E  
                                                        u1800 2E90  
                                                        u1721 3760  
                                                        u1481 2DB0  
                                                        u1561 26B2  
                                                        u1641 284A  
                                                        u1801 2E8C  
                                                        u1490 2DCA  
                                                        u1570 26CE  
                                                        u1650 289E  
                                                        u1810 2FC4  
                                                        _T2PR 0323  
                                                        u1491 2DC6  
                                                        u1571 26CA  
                                                        u1651 289A  
                                                        u1811 2FC0  
                                                        u2427 34DE  
                                                        u1580 26FA  
                                                        u1660 28BE  
                                                        u1820 2FDC  
                                                        u1900 2D36  
                                                        u1581 26F6  
                                                        u1661 28BA  
                                                        u1821 2FD8  
                                                        u1901 2D32  
                                                        u2437 2D02  
                                                        u1590 2710  
                                                        u1670 37DE  
                                                        u1750 2E10  
                                                        u1910 2D4A  
                                                        u1591 270C  
                                                        u1671 37DA  
                                                        u1751 2E0C  
                                                        u2447 3270  
                                                        u1911 2D46  
                                                        u1760 2E2C  
                                                        u1920 2EAA  
                                                        u1680 3876  
                                                        u1761 2E28  
                                                        u1745 33B4  
                                                        u1921 2EA6  
                                                        u1681 3872  
                                                        u1850 3038  
                                                        u1770 2E40  
                                                        u1746 33B6  
                                                        u1930 2ECA  
                                                        u1690 3854  
                                                        u1851 3034  
                                                        u1835 2FE6  
                                                        u1771 2E3C  
                                                        u1931 2EC6  
                                                        u1691 3850  
                                                        u1780 2E5A  
                                                        u1860 2CA8  
                                                        u1845 300A  
                                                        u1781 2E56  
                                                        u1861 2CA4  
                                                        u1790 2E6A  
                                                        u1950 2F1C  
                                                        u1870 2CC4  
                                                        u1791 2E64  
                                                        u1951 2F18  
                                                        u1871 2CC0  
                                                        u1960 304E  
                                                        u1945 2ED4  
                                                        u1961 304A  
                                                        u1970 3070  
                                                        u1890 2D1A  
                                                        u1971 306C  
                                                        u1891 2D16  
                                                        u1796 2E6C  
                                                        u1980 3084  
                                                        u1981 3080  
                                                        u1885 2CE8  
                                                        u1990 30A0  
                                                        u1991 309C  
                                     _TMR1_HasOverflowOccured 3914  
                                                        _TMR2 0322  
                                                        _WPUA 0401  
                                                        _WPUB 0409  
                                                        _WPUC 0411  
                                                        _WPUD 0419  
                                                        _WPUE 0421  
                                     __end_of_NVM_StatusClear 39D8  
                                                        abs@a 0509  
                                                        _dbuf 057B  
                                                        _main 295A  
                                                        _dtoa 2692  
                                                        _tmr0 266D  
                                                        _tmr1 265B  
                                                        _tmr2 2649  
                                                        _prec 0577  
                                                        pad@i 051A  
                                                        pad@p 0517  
                                                        fsr1h 04E2  
                                                        fsr2h 04DA  
                                                        indf2 04DF  
                                                        fsr1l 04E1  
                                                        pad@w 051C  
                                                        fsr2l 04D9  
                                                _unlockKeyLow 0552  
                                   ?_INT2_SetInterruptHandler 0503  
                                                        start 001A  
                                             _UART1_IsRxReady 0000  
                                             _UART1_IsTxReady 0000  
                                                 _switchEvent 055E  
                                                ___param_bank 0000  
                                                       ??_ADC 0547  
                                            _TMR0_OverflowISR 368C  
                                                       ??_PWM 0547  
                                                       ??_VSR 0547  
                                                       ??_abs 050B  
                                        __end_of_EEPROM_Write 33BE  
                                                       ??_pad 0519  
   PWM3_16BIT_SetSlice1Output1DutyCycleRegister@registerValue 0503  
                                     __end_of_TMR0_Initialize 37CE  
                              ??_TMR1_DefaultOverflowCallback 0501  
                                                       _ADACT 03F9  
                                                       _ADCAP 03F0  
                                                       ?_main 0501  
                                                       ?_dtoa 051E  
                                                       _ADCLK 03FA  
                                                       _ADCNT 03E6  
                                                       _ADPCH 03EC  
                                                       _ADREF 03F8  
                                             __end_of___awdiv 2C98  
                                                       _ADRES 03EA  
                                             __end_of___awmod 2E00  
                                                       _ADRPT 03E7  
                                                       _T1CLK 0321  
                                             ___awdiv@divisor 0505  
                                                       _T1CON 031E  
                                                       _U1P1H 02A6  
                                                       _U1P2H 02A8  
                                                       _U1P1L 02A5  
                                                       _U1P3H 02AA  
                                                       _U1P2L 02A7  
                                                       _T2CON 0324  
                                                       _U1P3L 02A9  
                                                       _IOCAF 0407  
                                                       _T2HLT 0325  
                                                       _IOCBF 040F  
                                                       _IOCCF 0417  
                                                       _IOCEF 0427  
                                                       _IOCAN 0406  
                                                       _IOCAP 0405  
                                                       _IOCBN 040E  
                                                       _IOCBP 040D  
                                                       _IOCCN 0416  
                                                       _IOCCP 0415  
                                                       _IOCEN 0426  
                                                       _IOCEP 0425  
                                                       _T2TMR 0322  
                                                       _U1UIR 02B1  
                                                       _T2RST 0327  
                                                       _U1RXB 02A1  
                                                       _U1TXB 02A3  
                                                       i2l273 38A2  
                                                       i2l900 340A  
                                                       i2l829 39FC  
                                             ___awdiv@counter 0507  
                                                       i2l896 33EA  
                                                       _OSCEN 00B3  
                                                       _UART1 2601  
                                                vfpfcnvrt@fmt 052D  
                                                       _TMR0H 0319  
                                                       _TMR1H 031D  
                                                       _TMR0L 0318  
                                                       _TMR1L 031C  
                                                       _TRISA 04C6  
                                                       _TRISB 04C7  
                                                       _TRISC 04C8  
                                                       _TRISD 04C9  
                                                       _TRISE 04CA  
                                                       _Blink 2E00  
                                                  _HelloWorld 35D8  
                       fp__UART1_FramingErrorCallbackRegister 0000  
                  __end_of_UART1_FramingErrorCallbackRegister 3884  
                        ??_UART1_FramingErrorCallbackRegister 0506  
                         ?_UART1_FramingErrorCallbackRegister 0503  
                          _UART1_FramingErrorCallbackRegister 3862  
            _PWM3_16BIT_Slice1Output1_DefaultInterruptHandler 0000  
                                                       _delay 0558  
                                                 ?_TMR1_Start 0501  
                                     __end_of_PIN_MANAGER_IOC 39FE  
                                                       _flags 0550  
                                                 ?_TMR2_Start 0501  
                                                 ?_TMR1_Write 0503  
                                                       _fputc 2B0A  
                                                       _fputs 3554  
                                                       pad@fp 0513  
                                                       _width 0575  
                                             __end_of_nextLab 38C0  
                                                       _putch 39F4  
                                                       dtoa@d 0520  
                                                       dtoa@i 0528  
                                                       dtoa@p 0524  
                                                       dtoa@s 052A  
                                                       dtoa@w 0526  
                                    _INT1_SetInterruptHandler 398A  
                                               _unlockKeyHigh 0551  
                                     __end_of_TMR1_Initialize 3366  
                                                       pclath 04FA  
                                                       pclatu 04FB  
                                                       tablat 04F5  
                                                       status 04D8  
                                      ??_PWM_Output_D5_Enable 0503  
                                            EEPROM_Write@data 0506  
                                             __initialization 3778  
                                        _UART1_TransmitEnable 0000  
                                                __end_of_main 2A3E  
                                                __end_of_dtoa 2826  
                                                __end_of_tmr0 267F  
                                                __end_of_tmr1 266D  
                                                __end_of_tmr2 265B  
                                     __end_of_TMR2_Initialize 371C  
                                 ?_INTERRUPT_InterruptManager 0501  
                                                      ??_main 054A  
                                                      ??_dtoa 0522  
                                                   ??_LAB_ISR 0501  
                                               __activetblptr 0003  
               __end_of_PWM3_16BIT_Period_SetInterruptHandler 397C  
                     ??_PWM3_16BIT_Period_SetInterruptHandler 0506  
                      ?_PWM3_16BIT_Period_SetInterruptHandler 0503  
                       _PWM3_16BIT_Period_SetInterruptHandler 396E  
                                                      ?_Blink 0501  
                                                  _Interrupts 3508  
                                            _UART1_Initialize 2F2A  
            UART1_ParityErrorCallbackRegister@callbackHandler 0503  
           UART1_OverrunErrorCallbackRegister@callbackHandler 0503  
           UART1_FramingErrorCallbackRegister@callbackHandler 0503  
                          _PWM3_16BIT_Period_InterruptHandler 05A7  
                                   ??_TMR1_HasOverflowOccured 0503  
                                                      _ADACCH 03E4  
                                                      _ADACCL 03E3  
                                                      _ADACCU 03E5  
                                                      _ADACQH 03EF  
                                                      _ADACQL 03EE  
                                                      _ADCON0 03F3  
                                                      _ADCON1 03F4  
                                                      _ADCON2 03F5  
                                                      _ADCON3 03F6  
                                                      _ADERRH 03DE  
                                                      _ADERRL 03DD  
                                                      ?_fputc 0503  
                                                      _ACTCON 00AC  
                                                      _ADLTHH 03DA  
                                                      _ADLTHL 03D9  
                                                      ?_fputs 050C  
                                                      _ADRESH 03EB  
                                                      _ADRESL 03EA  
                                                      _ADPREH 03F2  
                                                      _ADPREL 03F1  
                                                      _ADSTAT 03F7  
                                                      _ADUTHH 03DC  
                                            ___awdiv@dividend 0503  
                                                      _ADUTHL 03DB  
                       __end_of_TMR1_OverflowCallbackRegister 3944  
                               _TMR1_OverflowCallbackRegister 3936  
                                                      _ANSELA 0400  
                                                      ?_putch 0501  
                                                      _ANSELB 0408  
                                                      _ANSELC 0410  
                                                      _ANSELD 0418  
                                                      _ANSELE 0420  
                                                      _T0CON0 031A  
                                                      _T0CON1 031B  
                                                      _EEPROM 30C4  
                                                      _RB1I2C 0289  
                                                      _T1GATE 0320  
                                                      _RB2I2C 0288  
                                                      _T1GCON 031F  
                                                      _U1CON0 02AB  
                                                      _U1CON1 02AC  
                                                      _U1CON2 02AD  
                                                      _RC3I2C 0287  
                                                      _RC4I2C 0286  
                                                      _U1BRGH 02AF  
                                                      _U1FIFO 02B0  
                                                      _U1BRGL 02AE  
                                                      _RA7PPS 0208  
                                                      _ODCONA 0402  
                                                      _ODCONB 040A  
                                                      _RC6PPS 0217  
                                                      _ODCONC 0412  
                                                      _ODCOND 041A  
                                                      _ODCONE 0422  
                                                      i2l1022 39F8  
                                                      i2l1103 39F6  
                                                      i2l1016 36BE  
                                                      i2l1192 39FA  
                                                      i2l4021 33C6  
                                                      i2l4023 33D4  
                                                      i2l4025 33E2  
                                                      i2l4027 33F8  
                                                      i2l4029 3406  
                                                      i2l3701 3898  
                                                      i2l3703 389C  
                                                      _INLVLA 0404  
                                                      _INLVLB 040C  
                                                      _INLVLC 0414  
                                                      _INLVLD 041C  
                                                      _INLVLE 0424  
                                                      i2l3697 3884  
                                                      i2l3699 3894  
                                                      i2l3975 368C  
                                                      i2l3977 368E  
                                                      i2l3979 36A4  
                                                      _TABLAT 04F5  
                                                      _OSCFRQ 00B1  
                                                      _TMR0IE 250F  
                                                      _TMR1IF 258C  
                                            ?_NVM_StatusClear 0501  
                                               ??_SleepWakeUp 0503  
                                                      _Timers 303E  
                                                vfprintf@cfmt 053F  
                                                      _Rotate 323C  
                                                ?_TMR1_Reload 0501  
                        __end_of_TMR2_DefaultOverflowCallback 39FC  
                                _TMR2_DefaultOverflowCallback 39FA  
                                           __end_of_TMR1_Stop 39EA  
                                                   ??___awdiv 0507  
                                                   ??___awmod 0507  
                                           __end_of_TMR2_Stop 39DE  
                                            ?_TMR0_Initialize 0501  
                                                      clear_0 377E  
                                                      clear_1 378A  
                                            ___awdiv@quotient 0509  
                                             ___awmod@divisor 0505  
                                                      isa$std 0001  
                                             ___awmod@counter 0507  
                                                      _printf 37F8  
                                                      pad@buf 0515  
                                                      dtoa@fp 051E  
                                           ?_CLOCK_Initialize 0501  
                                             _ADCC_Initialize 32AE  
                                                      fputc@c 0503  
                                _INT2_DefaultInterruptHandler 0000  
                                                      fputs@c 0510  
                                                      fputs@i 0511  
                                                      fputs@s 050C  
                                 ??_TMR1_GateCallbackRegister 0506  
                                          ??_CLOCK_Initialize 0503  
                                                   ??_nextLab 0503  
                                                __mediumconst 0000  
                                                 ?_HelloWorld 0501  
                                                      tblptrh 04F7  
                                                      tblptrl 04F6  
                                                      tblptru 04F8  
                       fp__UART1_OverrunErrorCallbackRegister 0000  
                  __end_of_UART1_OverrunErrorCallbackRegister 3862  
                        ??_UART1_OverrunErrorCallbackRegister 0506  
                         ?_UART1_OverrunErrorCallbackRegister 0503  
                          _UART1_OverrunErrorCallbackRegister 3840  
                                                      putch@c 0501  
                                            __end_of_vfprintf 34BA  
                                   ?_ADCC_GetSingleConversion 0503  
                    INT2_SetInterruptHandler@InterruptHandler 0503  
                    INT1_SetInterruptHandler@InterruptHandler 0503  
                    INT0_SetInterruptHandler@InterruptHandler 0503  
       PWM3_16BIT_Period_SetInterruptHandler@InterruptHandler 0503  
PWM3_16BIT_Slice1Output2_SetInterruptHandler@InterruptHandler 0503  
PWM3_16BIT_Slice1Output1_SetInterruptHandler@InterruptHandler 0503  
                                            ?_PIN_MANAGER_IOC 0501  
                                             _CLC1_Initialize 3658  
                                            ??_NVM_Initialize 0503  
                                           _UART1_AutoBaudSet 0000  
                                            ?_TMR1_Initialize 0501  
                                     ??_PWM_Output_D5_Disable 0503  
                                           _SYSTEM_Initialize 36C0  
                                                  __accesstop 0560  
                                     __end_of__initialization 379E  
                                          ?_SYSTEM_Initialize 0501  
                                               ___rparam_used 0001  
                                               __end_of_UART1 2649  
                                               __end_of_Blink 2E9A  
                                              __pcstackCOMRAM 0501  
                                         ??_SYSTEM_Initialize 0508  
                                       _UART1_TransmitDisable 0000  
                                         __end_of_SleepWakeUp 3468  
                                               __end_of_fputc 2BD4  
                                               __end_of_fputs 3598  
                             fp__TMR2_DefaultOverflowCallback 0000  
                               ?_TMR2_DefaultOverflowCallback 0501  
                                               __end_of_putch 39F6  
                                            ?_TMR2_Initialize 0501  
                                                     ??_Blink 0505  
                                       _PWM3_16BIT_Initialize 3148  
                                                 ?_Interrupts 0501  
                            __end_of_INT2_SetInterruptHandler 398A  
                                   _UART1_FramingErrorHandler 0566  
                             ??_TMR2_OverflowCallbackRegister 0506  
                                    __end_of_TMR0_OverflowISR 36C0  
                                                     ??_fputc 0507  
                                   __end_of_SYSTEM_Initialize 36EE  
                                                     ??_fputs 0510  
                                                     ??_putch 0503  
                                                     ?_EEPROM 0501  
                                                _EEPROM_Write 3366  
                                                  __pbssBANK5 0560  
                                       _INT0_InterruptHandler 0572  
                                       _TMR0_OverflowCallback 05A4  
                            fp__TMR1_OverflowCallbackRegister 0000  
                              ?_TMR1_OverflowCallbackRegister 0503  
                                   _TMR1_GateCallbackRegister 3944  
                                                     IVTBASEH 045E  
                                                     IVTBASEL 045D  
                                                     IVTBASEU 045F  
                                          _UART1_Deinitialize 0000  
                                                     ?_Timers 0501  
                                                     ?_Rotate 0501  
                                     __end_of_ADCC_Initialize 330E  
                                                     _ADFLTRH 03E2  
                                                     _ADFLTRL 03E1  
                                                  _ledDisplay 0553  
                                                     _ADPREVH 03E9  
                                                     _ADPREVL 03E8  
                                                     _CLCDATA 00D4  
                                                     _ADSTPTH 03E0  
                                                     _ADSTPTL 03DF  
                                                     ?_printf 0541  
                                                     _CLCnCON 00D6  
                                                     _CLCnPOL 00D7  
                                                     _LAB_ISR 3884  
                                                     _U1ERRIE 02B3  
                                                     _U1ERRIR 02B2  
                                     __end_of_CLC1_Initialize 368C  
                                  ??_INT1_SetInterruptHandler 0506  
                                                     _U1RXCHK 02A2  
                                                     _U1TXCHK 02A4  
                                                     _U1RXPPS 0272  
                                                     _OSCCON1 00AD  
                                                     _OSCCON3 00AF  
                                                     _TBLPTRH 04F7  
                                                     _TBLPTRL 04F6  
                                                     _TBLPTRU 04F8  
                                                     _NVMADRH 0044  
                                                     _NVMADRL 0043  
                                                     _NVMADRU 0045  
                                                     _NVMDATH 0047  
                                                     _OSCTUNE 00B0  
                                                     _NVMDATL 0046  
                                                     _PWM3CLK 047F  
                                                     _PWM3GIE 0486  
                                                     _PWM3CON 0487  
                                                     _PWM3GIR 0485  
                                                     _PWM3ERS 047E  
                                                     _PWM3LDS 0480  
                                                     _PWM3PRH 0482  
                                                     _PWM3PRL 0481  
                                                     _NVMLOCK 0042  
                                                     _SLRCONA 0403  
                                                     _SLRCONB 040B  
                                                     _SLRCONC 0413  
                                                     _SLRCOND 041B  
                                                     _SLRCONE 0423  
                                                ??_TMR1_Start 0503  
                                                     _PPSLOCK 0200  
                                                ??_TMR2_Start 0503  
                                                ??_TMR1_Write 0505  
                                         fp__UART1_Initialize 0000  
                                   ?_INT0_SetInterruptHandler 0503  
                                                 _SleepWakeUp 3414  
                                                     __Hparam 0000  
                                                     __Lparam 0000  
                                    __end_of_UART1_Initialize 2FB4  
                                                   _CLCSELECT 00D5  
                                                     ___awdiv 2BD4  
                                                     ___awmod 2D50  
                                                   ?_vfprintf 0539  
                                                __psmallconst 2600  
                                          __end_of_TMR1_Start 39F0  
                                          __end_of_TMR2_Start 39E4  
                                          __end_of_TMR1_Write 37F8  
                                                     __pcinit 3778  
                                                     __ramtop 2600  
                                                     __ptext0 295A  
                                                     __ptext1 38A4  
                                                     __ptext2 34BA  
                                                     __ptext3 2C98  
                                                     __ptext4 303E  
                                                     __ptext5 3414  
                                                     __ptext6 36C0  
                                                     __ptext7 2F2A  
                                                     __ptext8 381E  
                                                     __ptext9 3840  
        __end_of_PWM3_16BIT_Slice1Output1_SetInterruptHandler 396E  
              ??_PWM3_16BIT_Slice1Output1_SetInterruptHandler 0506  
               ?_PWM3_16BIT_Slice1Output1_SetInterruptHandler 0503  
                _PWM3_16BIT_Slice1Output1_SetInterruptHandler 3960  
                                                   _T1CONbits 031E  
                                      ?_PWM3_16BIT_Initialize 0501  
                                                   _T2CONbits 0324  
                              ??_TMR2_DefaultOverflowCallback 0501  
                                            ___awmod@dividend 0503  
                                                     _nextLab 38A4  
                                    ??_PIN_MANAGER_Initialize 0503  
                                                   _T2HLTbits 0325  
                                                  fp__LAB_ISR 0000  
               TMR2_OverflowCallbackRegister@InterruptHandler 0503  
                                        end_of_initialization 379E  
            _PWM3_16BIT_Slice1Output2_DefaultInterruptHandler 0000  
                                                   _U1UIRbits 02B1  
                                                   _T2RSTbits 0327  
                                    _INT2_SetInterruptHandler 397C  
                                                   _PIR10bits 04B8  
                                               ??_EEPROM_Read 0506  
                                                     fputc@fp 0505  
                                                     fputs@fp 050E  
                                           __end_of_vfpfcnvrt 295A  
                                                     postdec2 04DD  
                                               _checkButtonS1 34BA  
                                                     postinc0 04EE  
                                                     postinc1 04E6  
                                                     postinc2 04DE  
                                                   _PWM3S1CFG 0488  
                                                   _PWM3S1P1H 048A  
                                                   _PWM3S1P2H 048C  
                                                   _PWM3S1P1L 0489  
                                                   _PWM3S1P2L 048B  
                                            vfpfcnvrt@convarg 0533  
                                            ?_ADCC_Initialize 0501  
                                                   _PWM3PIPOS 0484  
                                                  ??_vfprintf 053F  
                      __end_of_PWM3_16BIT_LoadBufferRegisters 39F4  
                              _PWM3_16BIT_LoadBufferRegisters 39F0  
                            __end_of_ADCC_GetSingleConversion 3778  
                            _UART1_DefaultParityErrorCallback 0000  
                                       _INT1_InterruptHandler 056F  
                                                   _TMR0_Stop 0000  
                                                   _PORTBbits 04CF  
                                                   _TMR1_Stop 39E4  
                                                   _TMR2_Stop 39D8  
                                       _TMR1_OverflowCallback 05A1  
                                            ?_CLC1_Initialize 0501  
                       __end_of_TMR0_OverflowCallbackRegister 39B4  
                               _TMR0_OverflowCallbackRegister 39A6  
                                                ??_HelloWorld 0503  
                    TMR1_GateCallbackRegister@CallbackHandler 0503  
                TMR1_OverflowCallbackRegister@CallbackHandler 0503  
                TMR0_OverflowCallbackRegister@CallbackHandler 0503  
                                              __end_of_EEPROM 3148  
                               __end_of_PWM_Output_D5_Disable 3914  
                        __end_of_TMR0_DefaultOverflowCallback 39FA  
                                _TMR0_DefaultOverflowCallback 39F8  
                                              ?_checkButtonS1 0501  
                                         __end_of_EEPROM_Read 374A  
                                          __end_of_HelloWorld 3618  
                                __end_of_INTERRUPT_Initialize 35D8  
                                              __end_of_Timers 30C4  
                                              __end_of_Rotate 32AE  
                                _INT0_DefaultInterruptHandler 0000  
                                                 vfpfcnvrt@ap 052F  
                                                 vfpfcnvrt@cp 0537  
                                                 vfpfcnvrt@fp 052B  
                                                  ?_TMR1_Stop 0501  
                                                  ?_TMR2_Stop 0501  
                                    ?_TMR1_HasOverflowOccured 0501  
                                              __end_of_printf 381E  
                                          _rotateReg@VSR$F164 0557  
                                         start_initialization 3778  
                                                ??_Interrupts 0506  
                                                 __end_of_ADC 303E  
                                                 __end_of_PWM 2F2A  
                                                 __end_of_VSR 2D50  
                                          fp__TMR0_Initialize 0000  
                                                 __end_of_abs 3658  
                                                 __end_of_pad 323C  
                                          TMR1_Write@timerVal 0503  
                                           ?_TMR0_OverflowISR 0501  
                                                    ??_EEPROM 050B  
                                                  ivt0x8_base 0008  
                                                 _CLCDATAbits 00D4  
                                          ??_TMR0_OverflowISR 0501  
                                               fp__TMR1_Start 0000  
                                               fp__TMR2_Start 0000  
                                               fp__TMR1_Write 0000  
                             fp__TMR0_DefaultOverflowCallback 0000  
                               ?_TMR0_DefaultOverflowCallback 0501  
                                                    ??_Timers 0505  
                                                 vfprintf@fmt 053B  
                                          fp__TMR1_Initialize 0000  
                                                    ??_Rotate 0503  
                                          __end_of_Interrupts 3554  
                                    _TMR1_DefaultGateCallback 0000  
                             ??_TMR1_OverflowCallbackRegister 0506  
                                                    ??_printf 0545  
                                                    ?_LAB_ISR 0501  
                                    _ADCC_GetSingleConversion 374A  
                                                 __pbssCOMRAM 054C  
                            __end_of_INT0_SetInterruptHandler 39A6  
                                                   _adcResult 0559  
                                          fp__TMR2_Initialize 0000  
                            fp__TMR0_OverflowCallbackRegister 0000  
                              ?_TMR0_OverflowCallbackRegister 0503  
                                           _TMR1_GateCallback 059E  
                                       _adcResult@EEPROM$F398 0554  
                                       _INT2_InterruptHandler 056C  
                                                 _EEPROM_Read 371C  
                                       _TMR2_OverflowCallback 059B  
                                                   __pnvBANK5 059B  
                                                ?_SleepWakeUp 0501  
                                             ??_checkButtonS1 0503  
                                      _PIN_MANAGER_Initialize 2A3E  
                                                   _dtoa$3388 0522  
                                           ?_UART1_Initialize 0501  
                                                   _labNumber 055F  
                             ADCC_GetSingleConversion@channel 0507  
                                                    ?___awdiv 0503  
                                                    ?___awmod 0503  
                                                 _flagCounter 055B  
                                          ??_UART1_Initialize 0506  
                             __end_of_TMR1_HasOverflowOccured 3928  
                                     ??_PWM3_16BIT_Initialize 0506  
                                            _uart1RxLastError 0579  
                                ??_INTERRUPT_InterruptManager 0501  
                                                 ??_TMR1_Stop 0503  
                                                 ??_TMR2_Stop 0503  
                                           ??_NVM_StatusClear 0503  
                                                 __smallconst 2600  
                                  ??_INT2_SetInterruptHandler 0506  
                                                    ?_nextLab 0501  
                                                    _T2CLKCON 0326  
                                                    _CLCnGLS0 00DC  
                                                    _CLCnGLS1 00DD  
                                                    _CLCnGLS2 00DE  
                                                    _CLCnGLS3 00DF  
                                                    _CLCnSEL0 00D8  
                                                    _CLCnSEL1 00D9  
                                                    _CLCnSEL2 00DA  
                                                    _CLCnSEL3 00DB  
                                                 _U1ERRIRbits 02B2  
                                        _INTERRUPT_Initialize 3598  
                   _PWM3_16BIT_Period_DefaultInterruptHandler 0000  
                                            _CLOCK_Initialize 38C0  
                                           ??_TMR0_Initialize 0506  
                                                    _LATAbits 04BE  
                                   ?_INT1_SetInterruptHandler 0503  
                                                    _PIE0bits 049E  
                                                    _PIE3bits 04A1  
                                                    _PIE7bits 04A5  
                                                    i2u220_40 33E2  
                                                    i2u220_41 33DE  
                                                    i2u221_40 33F8  
                                                    i2u221_41 33F4  
                                                    i2u222_40 3406  
                                                    i2u222_41 3402  
                                                    i2u207_40 36A4  
                                                    i2u207_41 36A0  
                                                    i2u208_48 36AA  
                                                    i2u208_49 36BE  
                                                    i2u219_40 33D4  
                                                    i2u219_41 33D0  
                                                    i2u173_40 3894  
                                                    i2u173_41 3890  
                                                    _PIR0bits 04AE  
                                                    _PIR1bits 04AF  
                                                    _PIR2bits 04B0  
                                                    _PIR3bits 04B1  
                                                    _PIR6bits 04B4  
                                                    _PIR7bits 04B5  
                                               ??_TMR1_Reload 0505  
                                                    _PWM3CPRE 0483  
        __end_of_PWM3_16BIT_SetSlice1Output1DutyCycleRegister 39CC  
              ??_PWM3_16BIT_SetSlice1Output1DutyCycleRegister 0505  
               ?_PWM3_16BIT_SetSlice1Output1DutyCycleRegister 0503  
                _PWM3_16BIT_SetSlice1Output1DutyCycleRegister 39C2  
                                           ??_PIN_MANAGER_IOC 0501  
                              ??_TMR0_DefaultOverflowCallback 0501  
                                                   _vfpfcnvrt 2826  
                                           ??_TMR1_Initialize 0506  
                                                   _rotateReg 055A  
                                                  _ADCON0bits 03F3  
                                                  _ADCON1bits 03F4  
                                                  _ADCON2bits 03F5  
                                                  _ADCON3bits 03F6  
        __end_of_PWM3_16BIT_Slice1Output2_SetInterruptHandler 3960  
              ??_PWM3_16BIT_Slice1Output2_SetInterruptHandler 0506  
               ?_PWM3_16BIT_Slice1Output2_SetInterruptHandler 0503  
                _PWM3_16BIT_Slice1Output2_SetInterruptHandler 3952  
                                __end_of_PWM_Output_D5_Enable 38F8  
                            ??_PWM3_16BIT_LoadBufferRegisters 0503  
                             ?_PWM3_16BIT_LoadBufferRegisters 0501  
                                                 _INTCON0bits 04D6  
                   _PWM3_16BIT_Slice1Output1_InterruptHandler 05AD  
                                       ?_INTERRUPT_Initialize 0501  
                                    _INT0_SetInterruptHandler 3998  
                                           ??_TMR2_Initialize 0506  
                                                fp__TMR1_Stop 0000  
                                                fp__TMR2_Stop 0000  
                                                  _ADSTATbits 03F7  
                                                    __Hrparam 0000  
                                                  vfprintf@ap 053D  
                                                    __Lrparam 0000  
                                                  vfprintf@fp 0539  
                                   _rotateReg@Interrupts$F299 0555  
                                                  ?_vfpfcnvrt 052B  
                                         __end_of_TMR1_Reload 39C2  
                                       _TMR1_InterruptHandler 0569  
                           _UART1_DefaultFramingErrorCallback 0000  
                                                  _T0CON0bits 031A  
                                                    __pivt0x8 0008  
                                                    _labState 055D  
                                                    __ptext10 3862  
                                                    __ptext11 36EE  
                                                    __ptext20 396E  
                                                    __ptext12 3928  
                                                    __ptext21 2A3E  
                                                    __ptext13 330E  
                                                  _T1GCONbits 031F  
                                                    __ptext30 32AE  
                                                    __ptext22 39CC  
                                                    __ptext14 3936  
                                                    __ptext31 323C  
                                                    __ptext23 39D2  
                                                    __ptext15 3944  
                                                    __ptext40 39A6  
                                                    __ptext32 2E9A  
                                                    __ptext24 3598  
                                                    __ptext16 37A4  
                                                    __ptext41 35D8  
                                                    __ptext33 39D8  
                                                    __ptext25 397C  
                                                    __ptext17 3148  
                                                    __ptext50 3914  
                                                    __ptext42 30C4  
                                                    __ptext34 39DE  
                                                    __ptext26 398A  
                                                    __ptext18 3952  
                                                    __ptext51 2FB4  
                                                    __ptext43 3366  
                                                    __ptext35 38DC  
                                                    __ptext27 3998  
                                                    __ptext19 3960  
                                                    __ptext60 3618  
                                                    __ptext52 37F8  
                                                    __ptext44 371C  
                                                    __ptext36 38F8  
                                                    __ptext28 38C0  
                                                    __ptext61 2D50  
                                                    __ptext53 3468  
                                                    __ptext45 2E00  
                                                    __ptext37 39C2  
                                                    __ptext29 3658  
                                                    __ptext70 39FC  
                                                    __ptext62 2BD4  
                                                    __ptext54 2826  
                                                    __ptext46 39E4  
                                                    __ptext38 39F0  
                                                    __ptext71 0000  
                                                    __ptext63 374A  
                                                    __ptext55 2692  
                                                    __ptext47 39EA  
                                                    __ptext39 3508  
                                                    __ptext64 33BE  
                                                    __ptext56 31C2  
                                                    __ptext48 39B4  
                                                    __ptext65 368C  
                                                    __ptext57 3554  
                                                    __ptext49 37CE  
                                                    __ptext66 39F6  
                                                    __ptext58 2B0A  
                                                    __ptext67 39F8  
                                                    __ptext59 39F4  
                                                    __ptext68 3884  
                                                    __ptext69 39FA  
                                                    _btnState 055C  
                                                  _U1CON0bits 02AB  
                                                  _U1CON1bits 02AC  
                                               ?_EEPROM_Write 0503  
                                                  _U1FIFObits 02B0  
                       __end_of_TMR2_OverflowCallbackRegister 3936  
                                          _adcResult@PWM$F215 054E  
                               _TMR2_OverflowCallbackRegister 3928  
                        __end_of_TMR1_DefaultOverflowCallback 39F8  
                                _TMR1_DefaultOverflowCallback 39F6  
                                       _PWM_Output_D5_Disable 38F8  
                                   _UART1_OverrunErrorHandler 0563  
                                              _NVM_Initialize 39CC  
                                                    isa$xinst 0000  
                                  ??_ADCC_GetSingleConversion 0505  
                                                    _vfprintf 3468  
                          __end_of_INTERRUPT_InterruptManager 3414  
                                  _INTERRUPT_InterruptManager 33BE  
                                                   printf@fmt 0541  
                                                 _UART1_Write 0000  
                                _INT1_DefaultInterruptHandler 0000  
                                                 _NVMCON0bits 0040  
                                                 _NVMCON1bits 0041  
                                                 _PWM3GIEbits 0486  
                                                 _PWM3CONbits 0487  
                                                 _PWM3GIRbits 0485  
                                      ??_INTERRUPT_Initialize 0506  
                                         _TMR2_PeriodCountSet 0000  
                                              ??_EEPROM_Write 0507  
                                                    intlevel2 0000  
                                                ?_EEPROM_Read 0503  
                                     ?_PIN_MANAGER_Initialize 0501  
                                                 _PPSLOCKbits 0200  
                                                 _WDTCON0bits 0078  
                                      __end_of_NVM_Initialize 39D2  
                                        _PWM_Output_D5_Enable 38DC  
                                          EEPROM_Read@address 0503  
                                             _NVM_StatusClear 39D2  
                             ??_TMR0_OverflowCallbackRegister 0506  
                                                 _TMR0_Reload 0000  
                             fp__TMR1_DefaultOverflowCallback 0000  
                               ?_TMR1_DefaultOverflowCallback 0501  
                                                 _TMR1_Reload 39B4  
                                                    printf@ap 0545  
                                                  _UART1_Read 0000  
                   _PWM3_16BIT_Slice1Output2_InterruptHandler 05AA  
                                                 ??_vfpfcnvrt 0531  
                                    __end_of_CLOCK_Initialize 38DC  
                               __end_of_PWM3_16BIT_Initialize 31C2  
                                  ?_TMR1_GateCallbackRegister 0503  
                                             _TMR0_Initialize 37A4  
                            __end_of_INT1_SetInterruptHandler 3998  
                           _UART1_DefaultOverrunErrorCallback 0000  
                                                  _TMR1_Tasks 0000  
                                                  _TMR0_Start 0000  
                                       _rotateReg@Timers$F243 0556  
                                                  _TMR2_Tasks 0000  
                                                  _TMR1_Start 39EA  
                                                  _TMR2_Start 39DE  
                                                  _TMR1_Write 37CE  
                         EEPROM_Write@globalInterruptBitValue 050A  
                              __end_of_PIN_MANAGER_Initialize 2B0A  
                                           ??_ADCC_Initialize 0503  
                        fp__UART1_ParityErrorCallbackRegister 0000  
                   __end_of_UART1_ParityErrorCallbackRegister 3840  
                         ??_UART1_ParityErrorCallbackRegister 0506  
                          ?_UART1_ParityErrorCallbackRegister 0503  
                           _UART1_ParityErrorCallbackRegister 381E  
                                             _PIN_MANAGER_IOC 39FC  
                                         _UART1_AutoBaudQuery 0000  
                                      ?_PWM_Output_D5_Disable 0501  
                                             ?_NVM_Initialize 0501  
                                             _TMR1_Initialize 330E  
                                           ??_CLC1_Initialize 0503  
                                       ?_PWM_Output_D5_Enable 0501  
                                         EEPROM_Write@address 0503  
                                       __end_of_checkButtonS1 3508  
